

Microchip MPLAB XC8 Assembler V2.31 build 20201012212115 
                                                                                               Fri Feb 12 19:26:51 2021

Microchip MPLAB XC8 C Compiler v2.31 (Free license) build 20201012212115 Og1 
     1                           	processor	16F887
     2                           	pagewidth 120
     3                           	opt	flic
     4                           	psect	strings,global,class=STRING,delta=2,noexec
     5                           	psect	cinit,global,class=CODE,merge=1,delta=2
     6                           	psect	bssCOMMON,global,class=COMMON,space=1,delta=1,noexec
     7                           	psect	bssBANK0,global,class=BANK0,space=1,delta=1,noexec
     8                           	psect	bssBANK1,global,class=BANK1,space=1,delta=1,noexec
     9                           	psect	clrtext,global,class=CODE,delta=2
    10                           	psect	cstackBANK1,global,class=BANK1,space=1,delta=1,noexec
    11                           	psect	cstackCOMMON,global,class=COMMON,space=1,delta=1,noexec
    12                           	psect	cstackBANK0,global,class=BANK0,space=1,delta=1,noexec
    13                           	psect	maintext,global,class=CODE,split=1,delta=2
    14                           	psect	text1,local,class=CODE,merge=1,delta=2,group=1
    15                           	psect	text2,local,class=CODE,merge=1,delta=2,group=1
    16                           	psect	text3,local,class=CODE,merge=1,delta=2,group=2
    17                           	psect	text4,local,class=CODE,merge=1,delta=2,group=2
    18                           	psect	text5,local,class=CODE,merge=1,delta=2,group=3
    19                           	psect	text6,local,class=CODE,merge=1,delta=2,group=1
    20                           	psect	text7,local,class=CODE,merge=1,delta=2,group=2
    21                           	psect	text8,local,class=CODE,merge=1,delta=2,group=2
    22                           	psect	text9,local,class=CODE,merge=1,delta=2,group=2
    23                           	psect	text10,local,class=CODE,merge=1,delta=2,group=2
    24                           	psect	text11,local,class=CODE,merge=1,delta=2,group=2
    25                           	psect	text12,local,class=CODE,merge=1,delta=2,group=2
    26                           	psect	text13,local,class=CODE,merge=1,delta=2,group=2
    27                           	psect	text14,local,class=CODE,merge=1,delta=2,group=2
    28                           	psect	text15,local,class=CODE,merge=1,delta=2,group=2
    29                           	psect	text16,local,class=CODE,merge=1,delta=2,group=2
    30                           	psect	text17,local,class=CODE,merge=1,delta=2,group=2
    31                           	psect	text18,local,class=CODE,merge=1,delta=2,group=2
    32                           	psect	text19,local,class=CODE,merge=1,delta=2,group=2
    33                           	psect	text20,local,class=CODE,merge=1,delta=2,group=2
    34                           	psect	text21,local,class=CODE,merge=1,delta=2
    35                           	psect	text22,local,class=CODE,merge=1,delta=2
    36                           	psect	text23,local,class=CODE,merge=1,delta=2
    37                           	psect	text24,local,class=CODE,merge=1,delta=2
    38                           	psect	text25,local,class=CODE,merge=1,delta=2
    39                           	psect	text26,local,class=CODE,merge=1,delta=2
    40                           	psect	text27,local,class=CODE,merge=1,delta=2,group=2
    41                           	psect	text28,local,class=CODE,merge=1,delta=2,group=2
    42                           	psect	text29,local,class=CODE,merge=1,delta=2,group=2
    43                           	psect	text30,local,class=CODE,merge=1,delta=2
    44                           	psect	text31,local,class=CODE,merge=1,delta=2
    45                           	psect	text32,local,class=CODE,merge=1,delta=2
    46                           	psect	text33,local,class=CODE,merge=1,delta=2
    47                           	psect	text34,local,class=CODE,merge=1,delta=2
    48                           	psect	text35,local,class=CODE,merge=1,delta=2
    49                           	psect	text36,local,class=CODE,merge=1,delta=2
    50                           	psect	text37,local,class=CODE,merge=1,delta=2
    51                           	psect	text38,local,class=CODE,merge=1,delta=2
    52                           	psect	text39,local,class=CODE,merge=1,delta=2
    53                           	psect	text40,local,class=CODE,merge=1,delta=2
    54                           	psect	intentry,global,class=CODE,delta=2
    55                           	psect	config,global,abs,ovrld,class=CONFIG,space=4,delta=2,noexec
    56                           	psect	text1_split_1,local,class=CODE,merge=1,delta=2
    57                           	dabs	1,0x7E,2
    58  0000                     
    59                           ; Version 2.20
    60                           ; Generated 12/02/2020 GMT
    61                           ; 
    62                           ; Copyright © 2020, Microchip Technology Inc. and its subsidiaries ("Microchip")
    63                           ; All rights reserved.
    64                           ; 
    65                           ; This software is developed by Microchip Technology Inc. and its subsidiaries ("Microch
      +                          ip").
    66                           ; 
    67                           ; Redistribution and use in source and binary forms, with or without modification, are
    68                           ; permitted provided that the following conditions are met:
    69                           ; 
    70                           ;     1. Redistributions of source code must retain the above copyright notice, this lis
      +                          t of
    71                           ;        conditions and the following disclaimer.
    72                           ; 
    73                           ;     2. Redistributions in binary form must reproduce the above copyright notice, this 
      +                          list
    74                           ;        of conditions and the following disclaimer in the documentation and/or other
    75                           ;        materials provided with the distribution.
    76                           ; 
    77                           ;     3. Microchip's name may not be used to endorse or promote products derived from th
      +                          is
    78                           ;        software without specific prior written permission.
    79                           ; 
    80                           ; THIS SOFTWARE IS PROVIDED BY MICROCHIP "AS IS" AND ANY EXPRESS OR IMPLIED WARRANTIES,
    81                           ; INCLUDING, BUT NOT LIMITED TO, THE IMPLIED WARRANTIES OF MERCHANTABILITY AND FITNESS F
      +                          OR
    82                           ; PURPOSE ARE DISCLAIMED.  IN NO EVENT SHALL MICROCHIP BE LIABLE FOR ANY DIRECT, INDIREC
      +                          T,
    83                           ; INCIDENTAL, SPECIAL, EXEMPLARY, OR CONSEQUENTIAL DAMAGES (INCLUDING BUT NOT LIMITED TO
    84                           ; PROCUREMENT OF SUBSTITUTE GOODS OR SERVICES; LOSS OF USE, DATA OR PROFITS; OR BUSINESS
    85                           ; INTERRUPTION) HOWSOEVER CAUSED AND ON ANY THEORY OF LIABILITY, WHETHER IN CONTRACT, ST
      +                          RICT
    86                           ; LIABILITY, OR TORT (INCLUDING NEGLIGENCE OR OTHERWISE) ARISING IN ANY WAY OUT OF THE U
      +                          SE OF
    87                           ; THIS SOFTWARE, EVEN IF ADVISED OF THE POSSIBILITY OF SUCH DAMAGE.
    88                           ; 
    89                           ; 
    90                           ; Code-generator required, PIC16F887 Definitions
    91                           ; 
    92                           ; SFR Addresses
    93  0000                     	;# 
    94  0001                     	;# 
    95  0002                     	;# 
    96  0003                     	;# 
    97  0004                     	;# 
    98  0005                     	;# 
    99  0006                     	;# 
   100  0007                     	;# 
   101  0008                     	;# 
   102  0009                     	;# 
   103  000A                     	;# 
   104  000B                     	;# 
   105  000C                     	;# 
   106  000D                     	;# 
   107  000E                     	;# 
   108  000E                     	;# 
   109  000F                     	;# 
   110  0010                     	;# 
   111  0011                     	;# 
   112  0012                     	;# 
   113  0013                     	;# 
   114  0014                     	;# 
   115  0015                     	;# 
   116  0015                     	;# 
   117  0016                     	;# 
   118  0017                     	;# 
   119  0018                     	;# 
   120  0019                     	;# 
   121  001A                     	;# 
   122  001B                     	;# 
   123  001B                     	;# 
   124  001C                     	;# 
   125  001D                     	;# 
   126  001E                     	;# 
   127  001F                     	;# 
   128  0081                     	;# 
   129  0085                     	;# 
   130  0086                     	;# 
   131  0087                     	;# 
   132  0088                     	;# 
   133  0089                     	;# 
   134  008C                     	;# 
   135  008D                     	;# 
   136  008E                     	;# 
   137  008F                     	;# 
   138  0090                     	;# 
   139  0091                     	;# 
   140  0092                     	;# 
   141  0093                     	;# 
   142  0093                     	;# 
   143  0093                     	;# 
   144  0094                     	;# 
   145  0095                     	;# 
   146  0096                     	;# 
   147  0097                     	;# 
   148  0098                     	;# 
   149  0099                     	;# 
   150  009A                     	;# 
   151  009B                     	;# 
   152  009C                     	;# 
   153  009D                     	;# 
   154  009E                     	;# 
   155  009F                     	;# 
   156  0105                     	;# 
   157  0107                     	;# 
   158  0108                     	;# 
   159  0109                     	;# 
   160  010C                     	;# 
   161  010C                     	;# 
   162  010D                     	;# 
   163  010E                     	;# 
   164  010F                     	;# 
   165  0185                     	;# 
   166  0187                     	;# 
   167  0188                     	;# 
   168  0189                     	;# 
   169  018C                     	;# 
   170  018D                     	;# 
   171  0000                     	;# 
   172  0001                     	;# 
   173  0002                     	;# 
   174  0003                     	;# 
   175  0004                     	;# 
   176  0005                     	;# 
   177  0006                     	;# 
   178  0007                     	;# 
   179  0008                     	;# 
   180  0009                     	;# 
   181  000A                     	;# 
   182  000B                     	;# 
   183  000C                     	;# 
   184  000D                     	;# 
   185  000E                     	;# 
   186  000E                     	;# 
   187  000F                     	;# 
   188  0010                     	;# 
   189  0011                     	;# 
   190  0012                     	;# 
   191  0013                     	;# 
   192  0014                     	;# 
   193  0015                     	;# 
   194  0015                     	;# 
   195  0016                     	;# 
   196  0017                     	;# 
   197  0018                     	;# 
   198  0019                     	;# 
   199  001A                     	;# 
   200  001B                     	;# 
   201  001B                     	;# 
   202  001C                     	;# 
   203  001D                     	;# 
   204  001E                     	;# 
   205  001F                     	;# 
   206  0081                     	;# 
   207  0085                     	;# 
   208  0086                     	;# 
   209  0087                     	;# 
   210  0088                     	;# 
   211  0089                     	;# 
   212  008C                     	;# 
   213  008D                     	;# 
   214  008E                     	;# 
   215  008F                     	;# 
   216  0090                     	;# 
   217  0091                     	;# 
   218  0092                     	;# 
   219  0093                     	;# 
   220  0093                     	;# 
   221  0093                     	;# 
   222  0094                     	;# 
   223  0095                     	;# 
   224  0096                     	;# 
   225  0097                     	;# 
   226  0098                     	;# 
   227  0099                     	;# 
   228  009A                     	;# 
   229  009B                     	;# 
   230  009C                     	;# 
   231  009D                     	;# 
   232  009E                     	;# 
   233  009F                     	;# 
   234  0105                     	;# 
   235  0107                     	;# 
   236  0108                     	;# 
   237  0109                     	;# 
   238  010C                     	;# 
   239  010C                     	;# 
   240  010D                     	;# 
   241  010E                     	;# 
   242  010F                     	;# 
   243  0185                     	;# 
   244  0187                     	;# 
   245  0188                     	;# 
   246  0189                     	;# 
   247  018C                     	;# 
   248  018D                     	;# 
   249  0000                     	;# 
   250  0001                     	;# 
   251  0002                     	;# 
   252  0003                     	;# 
   253  0004                     	;# 
   254  0005                     	;# 
   255  0006                     	;# 
   256  0007                     	;# 
   257  0008                     	;# 
   258  0009                     	;# 
   259  000A                     	;# 
   260  000B                     	;# 
   261  000C                     	;# 
   262  000D                     	;# 
   263  000E                     	;# 
   264  000E                     	;# 
   265  000F                     	;# 
   266  0010                     	;# 
   267  0011                     	;# 
   268  0012                     	;# 
   269  0013                     	;# 
   270  0014                     	;# 
   271  0015                     	;# 
   272  0015                     	;# 
   273  0016                     	;# 
   274  0017                     	;# 
   275  0018                     	;# 
   276  0019                     	;# 
   277  001A                     	;# 
   278  001B                     	;# 
   279  001B                     	;# 
   280  001C                     	;# 
   281  001D                     	;# 
   282  001E                     	;# 
   283  001F                     	;# 
   284  0081                     	;# 
   285  0085                     	;# 
   286  0086                     	;# 
   287  0087                     	;# 
   288  0088                     	;# 
   289  0089                     	;# 
   290  008C                     	;# 
   291  008D                     	;# 
   292  008E                     	;# 
   293  008F                     	;# 
   294  0090                     	;# 
   295  0091                     	;# 
   296  0092                     	;# 
   297  0093                     	;# 
   298  0093                     	;# 
   299  0093                     	;# 
   300  0094                     	;# 
   301  0095                     	;# 
   302  0096                     	;# 
   303  0097                     	;# 
   304  0098                     	;# 
   305  0099                     	;# 
   306  009A                     	;# 
   307  009B                     	;# 
   308  009C                     	;# 
   309  009D                     	;# 
   310  009E                     	;# 
   311  009F                     	;# 
   312  0105                     	;# 
   313  0107                     	;# 
   314  0108                     	;# 
   315  0109                     	;# 
   316  010C                     	;# 
   317  010C                     	;# 
   318  010D                     	;# 
   319  010E                     	;# 
   320  010F                     	;# 
   321  0185                     	;# 
   322  0187                     	;# 
   323  0188                     	;# 
   324  0189                     	;# 
   325  018C                     	;# 
   326  018D                     	;# 
   327  0000                     	;# 
   328  0001                     	;# 
   329  0002                     	;# 
   330  0003                     	;# 
   331  0004                     	;# 
   332  0005                     	;# 
   333  0006                     	;# 
   334  0007                     	;# 
   335  0008                     	;# 
   336  0009                     	;# 
   337  000A                     	;# 
   338  000B                     	;# 
   339  000C                     	;# 
   340  000D                     	;# 
   341  000E                     	;# 
   342  000E                     	;# 
   343  000F                     	;# 
   344  0010                     	;# 
   345  0011                     	;# 
   346  0012                     	;# 
   347  0013                     	;# 
   348  0014                     	;# 
   349  0015                     	;# 
   350  0015                     	;# 
   351  0016                     	;# 
   352  0017                     	;# 
   353  0018                     	;# 
   354  0019                     	;# 
   355  001A                     	;# 
   356  001B                     	;# 
   357  001B                     	;# 
   358  001C                     	;# 
   359  001D                     	;# 
   360  001E                     	;# 
   361  001F                     	;# 
   362  0081                     	;# 
   363  0085                     	;# 
   364  0086                     	;# 
   365  0087                     	;# 
   366  0088                     	;# 
   367  0089                     	;# 
   368  008C                     	;# 
   369  008D                     	;# 
   370  008E                     	;# 
   371  008F                     	;# 
   372  0090                     	;# 
   373  0091                     	;# 
   374  0092                     	;# 
   375  0093                     	;# 
   376  0093                     	;# 
   377  0093                     	;# 
   378  0094                     	;# 
   379  0095                     	;# 
   380  0096                     	;# 
   381  0097                     	;# 
   382  0098                     	;# 
   383  0099                     	;# 
   384  009A                     	;# 
   385  009B                     	;# 
   386  009C                     	;# 
   387  009D                     	;# 
   388  009E                     	;# 
   389  009F                     	;# 
   390  0105                     	;# 
   391  0107                     	;# 
   392  0108                     	;# 
   393  0109                     	;# 
   394  010C                     	;# 
   395  010C                     	;# 
   396  010D                     	;# 
   397  010E                     	;# 
   398  010F                     	;# 
   399  0185                     	;# 
   400  0187                     	;# 
   401  0188                     	;# 
   402  0189                     	;# 
   403  018C                     	;# 
   404  018D                     	;# 
   405  0000                     	;# 
   406  0001                     	;# 
   407  0002                     	;# 
   408  0003                     	;# 
   409  0004                     	;# 
   410  0005                     	;# 
   411  0006                     	;# 
   412  0007                     	;# 
   413  0008                     	;# 
   414  0009                     	;# 
   415  000A                     	;# 
   416  000B                     	;# 
   417  000C                     	;# 
   418  000D                     	;# 
   419  000E                     	;# 
   420  000E                     	;# 
   421  000F                     	;# 
   422  0010                     	;# 
   423  0011                     	;# 
   424  0012                     	;# 
   425  0013                     	;# 
   426  0014                     	;# 
   427  0015                     	;# 
   428  0015                     	;# 
   429  0016                     	;# 
   430  0017                     	;# 
   431  0018                     	;# 
   432  0019                     	;# 
   433  001A                     	;# 
   434  001B                     	;# 
   435  001B                     	;# 
   436  001C                     	;# 
   437  001D                     	;# 
   438  001E                     	;# 
   439  001F                     	;# 
   440  0081                     	;# 
   441  0085                     	;# 
   442  0086                     	;# 
   443  0087                     	;# 
   444  0088                     	;# 
   445  0089                     	;# 
   446  008C                     	;# 
   447  008D                     	;# 
   448  008E                     	;# 
   449  008F                     	;# 
   450  0090                     	;# 
   451  0091                     	;# 
   452  0092                     	;# 
   453  0093                     	;# 
   454  0093                     	;# 
   455  0093                     	;# 
   456  0094                     	;# 
   457  0095                     	;# 
   458  0096                     	;# 
   459  0097                     	;# 
   460  0098                     	;# 
   461  0099                     	;# 
   462  009A                     	;# 
   463  009B                     	;# 
   464  009C                     	;# 
   465  009D                     	;# 
   466  009E                     	;# 
   467  009F                     	;# 
   468  0105                     	;# 
   469  0107                     	;# 
   470  0108                     	;# 
   471  0109                     	;# 
   472  010C                     	;# 
   473  010C                     	;# 
   474  010D                     	;# 
   475  010E                     	;# 
   476  010F                     	;# 
   477  0185                     	;# 
   478  0187                     	;# 
   479  0188                     	;# 
   480  0189                     	;# 
   481  018C                     	;# 
   482  018D                     	;# 
   483                           
   484                           	psect	strings
   485  1000                     __pstrings:
   486  1000                     stringtab:
   487  1000                     __stringtab:
   488                           
   489                           ;	String table - string pointers are 1 byte each
   490  1000  1BFF               	btfsc	btemp+1,7
   491  1001  280A               	ljmp	stringcode
   492  1002  1383               	bcf	3,7
   493  1003  187F               	btfsc	btemp+1,0
   494  1004  1783               	bsf	3,7
   495  1005  0800               	movf	0,w
   496  1006  0A84               	incf	4,f
   497  1007  1903               	skipnz
   498  1008  0AFF               	incf	btemp+1,f
   499  1009  0008               	return
   500  100A                     stringcode:
   501  100A                     stringdir:
   502  100A  3010               	movlw	high stringdir
   503  100B  008A               	movwf	10
   504  100C  0804               	movf	4,w
   505  100D  0A84               	incf	4,f
   506  100E  0782               	addwf	2,f
   507  100F                     __stringbase:
   508  100F  3400               	retlw	0
   509  1010                     __end_of__stringtab:
   510  1010                     __powers_:
   511  1010  3400               	retlw	0
   512  1011  3480               	retlw	128
   513  1012  343F               	retlw	63
   514  1013  3400               	retlw	0
   515  1014  3420               	retlw	32
   516  1015  3441               	retlw	65
   517  1016  3400               	retlw	0
   518  1017  34C8               	retlw	200
   519  1018  3442               	retlw	66
   520  1019  3400               	retlw	0
   521  101A  347A               	retlw	122
   522  101B  3444               	retlw	68
   523  101C  3440               	retlw	64
   524  101D  341C               	retlw	28
   525  101E  3446               	retlw	70
   526  101F  3450               	retlw	80
   527  1020  34C3               	retlw	195
   528  1021  3447               	retlw	71
   529  1022  3424               	retlw	36
   530  1023  3474               	retlw	116
   531  1024  3449               	retlw	73
   532  1025  3497               	retlw	151
   533  1026  3418               	retlw	24
   534  1027  344B               	retlw	75
   535  1028  34BC               	retlw	188
   536  1029  34BE               	retlw	190
   537  102A  344C               	retlw	76
   538  102B  346B               	retlw	107
   539  102C  346E               	retlw	110
   540  102D  344E               	retlw	78
   541  102E  3403               	retlw	3
   542  102F  3415               	retlw	21
   543  1030  3450               	retlw	80
   544  1031  3479               	retlw	121
   545  1032  34AD               	retlw	173
   546  1033  3460               	retlw	96
   547  1034  34F3               	retlw	243
   548  1035  3449               	retlw	73
   549  1036  3471               	retlw	113
   550  1037                     __end_of__powers_:
   551  1037                     __npowers_:
   552  1037  3400               	retlw	0
   553  1038  3480               	retlw	128
   554  1039  343F               	retlw	63
   555  103A  34CD               	retlw	205
   556  103B  34CC               	retlw	204
   557  103C  343D               	retlw	61
   558  103D  34D7               	retlw	215
   559  103E  3423               	retlw	35
   560  103F  343C               	retlw	60
   561  1040  3412               	retlw	18
   562  1041  3483               	retlw	131
   563  1042  343A               	retlw	58
   564  1043  34B7               	retlw	183
   565  1044  34D1               	retlw	209
   566  1045  3438               	retlw	56
   567  1046  34C6               	retlw	198
   568  1047  3427               	retlw	39
   569  1048  3437               	retlw	55
   570  1049  3438               	retlw	56
   571  104A  3486               	retlw	134
   572  104B  3435               	retlw	53
   573  104C  34C0               	retlw	192
   574  104D  34D6               	retlw	214
   575  104E  3433               	retlw	51
   576  104F  34CC               	retlw	204
   577  1050  342B               	retlw	43
   578  1051  3432               	retlw	50
   579  1052  3470               	retlw	112
   580  1053  3489               	retlw	137
   581  1054  3430               	retlw	48
   582  1055  34E7               	retlw	231
   583  1056  34DB               	retlw	219
   584  1057  342E               	retlw	46
   585  1058  34E5               	retlw	229
   586  1059  343C               	retlw	60
   587  105A  341E               	retlw	30
   588  105B  3442               	retlw	66
   589  105C  34A2               	retlw	162
   590  105D  340D               	retlw	13
   591  105E                     __end_of__npowers_:
   592  105E                     _dpowers:
   593  105E  3401               	retlw	1
   594  105F  3400               	retlw	0
   595  1060  3400               	retlw	0
   596  1061  3400               	retlw	0
   597  1062  340A               	retlw	10
   598  1063  3400               	retlw	0
   599  1064  3400               	retlw	0
   600  1065  3400               	retlw	0
   601  1066  3464               	retlw	100
   602  1067  3400               	retlw	0
   603  1068  3400               	retlw	0
   604  1069  3400               	retlw	0
   605  106A  34E8               	retlw	232
   606  106B  3403               	retlw	3
   607  106C  3400               	retlw	0
   608  106D  3400               	retlw	0
   609  106E  3410               	retlw	16
   610  106F  3427               	retlw	39
   611  1070  3400               	retlw	0
   612  1071  3400               	retlw	0
   613  1072  34A0               	retlw	160
   614  1073  3486               	retlw	134
   615  1074  3401               	retlw	1
   616  1075  3400               	retlw	0
   617  1076  3440               	retlw	64
   618  1077  3442               	retlw	66
   619  1078  340F               	retlw	15
   620  1079  3400               	retlw	0
   621  107A  3480               	retlw	128
   622  107B  3496               	retlw	150
   623  107C  3498               	retlw	152
   624  107D  3400               	retlw	0
   625  107E  3400               	retlw	0
   626  107F  34E1               	retlw	225
   627  1080  34F5               	retlw	245
   628  1081  3405               	retlw	5
   629  1082  3400               	retlw	0
   630  1083  34CA               	retlw	202
   631  1084  349A               	retlw	154
   632  1085  343B               	retlw	59
   633  1086                     __end_of_dpowers:
   634  0019                     _TXREG	set	25
   635  0018                     _RCSTAbits	set	24
   636  001F                     _ADCON0	set	31
   637  000C                     _PIR1bits	set	12
   638  000B                     _INTCONbits	set	11
   639  001E                     _ADRESH	set	30
   640  001F                     _ADCON0bits	set	31
   641  0005                     _PORTA	set	5
   642  0008                     _PORTD	set	8
   643  0007                     _PORTC	set	7
   644  0006                     _PORTB	set	6
   645  0009                     _PORTE	set	9
   646  001A                     _RCREG	set	26
   647  0049                     _RE1	set	73
   648  0048                     _RE0	set	72
   649  0065                     _RCIF	set	101
   650  0087                     _TRISCbits	set	135
   651  0098                     _TXSTAbits	set	152
   652  0099                     _SPBRG	set	153
   653  009F                     _ADCON1	set	159
   654  008C                     _PIE1bits	set	140
   655  0085                     _TRISA	set	133
   656  0088                     _TRISD	set	136
   657  0087                     _TRISC	set	135
   658  0086                     _TRISB	set	134
   659  0089                     _TRISE	set	137
   660  04C1                     _TRMT	set	1217
   661  0189                     _ANSELH	set	393
   662  0188                     _ANSEL	set	392
   663  1086                     STR_1:
   664  1086  3456               	retlw	86	;'V'
   665  1087  3431               	retlw	49	;'1'
   666  1088  3420               	retlw	32	;' '
   667  1089  3420               	retlw	32	;' '
   668  108A  3420               	retlw	32	;' '
   669  108B  3420               	retlw	32	;' '
   670  108C  3420               	retlw	32	;' '
   671  108D  3456               	retlw	86	;'V'
   672  108E  3432               	retlw	50	;'2'
   673  108F  3420               	retlw	32	;' '
   674  1090  3420               	retlw	32	;' '
   675  1091  3420               	retlw	32	;' '
   676  1092  3443               	retlw	67	;'C'
   677  1093  344F               	retlw	79	;'O'
   678  1094  344E               	retlw	78	;'N'
   679  1095  3454               	retlw	84	;'T'
   680  1096  3420               	retlw	32	;' '
   681  1097  340A               	retlw	10
   682  1098  3400               	retlw	0
   683  1099                     STR_2:
   684  1099  3425               	retlw	37	;'%'
   685  109A  3431               	retlw	49	;'1'
   686  109B  342E               	retlw	46	;'.'
   687  109C  3432               	retlw	50	;'2'
   688  109D  3466               	retlw	102	;'f'
   689  109E  3420               	retlw	32	;' '
   690  109F  3420               	retlw	32	;' '
   691  10A0  3420               	retlw	32	;' '
   692  10A1  3425               	retlw	37	;'%'
   693  10A2  3431               	retlw	49	;'1'
   694  10A3  342E               	retlw	46	;'.'
   695  10A4  3432               	retlw	50	;'2'
   696  10A5  3466               	retlw	102	;'f'
   697  10A6  3420               	retlw	32	;' '
   698  10A7  3425               	retlw	37	;'%'
   699  10A8  3433               	retlw	51	;'3'
   700  10A9  3464               	retlw	100	;'d'
   701  10AA  3400               	retlw	0
   702  10AB                     STR_3:
   703  10AB  3456               	retlw	86	;'V'
   704  10AC  3431               	retlw	49	;'1'
   705  10AD  3420               	retlw	32	;' '
   706  10AE  3420               	retlw	32	;' '
   707  10AF  3420               	retlw	32	;' '
   708  10B0  3456               	retlw	86	;'V'
   709  10B1  3432               	retlw	50	;'2'
   710  10B2  3420               	retlw	32	;' '
   711  10B3  3420               	retlw	32	;' '
   712  10B4  3420               	retlw	32	;' '
   713  10B5  3420               	retlw	32	;' '
   714  10B6  3443               	retlw	67	;'C'
   715  10B7  344F               	retlw	79	;'O'
   716  10B8  344E               	retlw	78	;'N'
   717  10B9  3454               	retlw	84	;'T'
   718  10BA  3400               	retlw	0
   719                           
   720                           	psect	cinit
   721  000F                     start_initialization:	
   722                           ; #config settings
   723                           
   724  000F                     __initialization:
   725                           
   726                           ; Clear objects allocated to COMMON
   727  000F  01FB               	clrf	__pbssCOMMON& (0+127)
   728                           
   729                           ; Clear objects allocated to BANK0
   730  0010  1283               	bcf	3,5	;RP0=0, select bank0
   731  0011  1303               	bcf	3,6	;RP1=0, select bank0
   732  0012  01ED               	clrf	__pbssBANK0& (0+127)
   733  0013  01EE               	clrf	(__pbssBANK0+1)& (0+127)
   734                           
   735                           ; Clear objects allocated to BANK1
   736  0014  1383               	bcf	3,7	;select IRP bank0
   737  0015  30BC               	movlw	low __pbssBANK1
   738  0016  0084               	movwf	4
   739  0017  30D6               	movlw	low (__pbssBANK1+26)
   740  0018  160A  118A  20BC  120A  118A  	fcall	clear_ram0
   741  001D                     end_of_initialization:	
   742                           ;End of C runtime variable initialization code
   743                           
   744  001D                     __end_of__initialization:
   745  001D  0183               	clrf	3
   746  001E  120A  118A  2ED5   	ljmp	_main	;jump to C main() function
   747                           
   748                           	psect	bssCOMMON
   749  007B                     __pbssCOMMON:
   750  007B                     _valor_adc:
   751  007B                     	ds	1
   752                           
   753                           	psect	bssBANK0
   754  006D                     __pbssBANK0:
   755  006D                     _recibido:
   756  006D                     	ds	1
   757  006E                     _contador:
   758  006E                     	ds	1
   759                           
   760                           	psect	bssBANK1
   761  00BC                     __pbssBANK1:
   762  00BC                     _V2:
   763  00BC                     	ds	3
   764  00BF                     _V1:
   765  00BF                     	ds	3
   766  00C2                     _pantalla:
   767  00C2                     	ds	20
   768                           
   769                           	psect	clrtext
   770  10BC                     clear_ram0:	
   771                           ;	Called with FSR containing the base address, and
   772                           ;	W with the last address+1
   773                           
   774  10BC  0064               	clrwdt	;clear the watchdog before getting into this loop
   775  10BD                     clrloop0:
   776  10BD  0180               	clrf	0	;clear RAM location pointed to by FSR
   777  10BE  0A84               	incf	4,f	;increment pointer
   778  10BF  0604               	xorwf	4,w	;XOR with final address
   779  10C0  1903               	btfsc	3,2	;have we reached the end yet?
   780  10C1  3400               	retlw	0	;all done for this memory range, return
   781  10C2  0604               	xorwf	4,w	;XOR again to restore value
   782  10C3  28BD               	goto	clrloop0	;do the next byte
   783                           
   784                           	psect	cstackBANK1
   785  00A0                     __pcstackBANK1:
   786  00A0                     _sprintf$1132:
   787                           
   788                           ; 3 bytes @ 0x0
   789  00A0                     	ds	3
   790  00A3                     sprintf@ap:
   791                           
   792                           ; 1 bytes @ 0x3
   793  00A3                     	ds	1
   794  00A4                     sprintf@flag:
   795                           
   796                           ; 2 bytes @ 0x4
   797  00A4                     	ds	2
   798  00A6                     sprintf@width:
   799                           
   800                           ; 2 bytes @ 0x6
   801  00A6                     	ds	2
   802  00A8                     sprintf@tmpval:
   803                           
   804                           ; 4 bytes @ 0x8
   805  00A8                     	ds	4
   806  00AC                     sprintf@val:
   807                           
   808                           ; 4 bytes @ 0xC
   809  00AC                     	ds	4
   810  00B0                     sprintf@eexp:
   811                           
   812                           ; 2 bytes @ 0x10
   813  00B0                     	ds	2
   814  00B2                     sprintf@fval:
   815                           
   816                           ; 3 bytes @ 0x12
   817  00B2                     	ds	3
   818  00B5                     sprintf@sp:
   819                           
   820                           ; 1 bytes @ 0x15
   821  00B5                     	ds	1
   822  00B6                     sprintf@prec:
   823                           
   824                           ; 2 bytes @ 0x16
   825  00B6                     	ds	2
   826  00B8                     sprintf@c:
   827                           
   828                           ; 1 bytes @ 0x18
   829  00B8                     	ds	1
   830  00B9                     ??_main:
   831                           
   832                           ; 1 bytes @ 0x19
   833  00B9                     	ds	3
   834                           
   835                           	psect	cstackCOMMON
   836  0070                     __pcstackCOMMON:
   837  0070                     ?_isdigit:
   838  0070                     ?_setup:	
   839                           ; 1 bit 
   840                           
   841  0070                     ?_initADC:	
   842                           ; 1 bytes @ 0x0
   843                           
   844  0070                     ?_LCD_Init:	
   845                           ; 1 bytes @ 0x0
   846                           
   847  0070                     ?_LCD_clear:	
   848                           ; 1 bytes @ 0x0
   849                           
   850  0070                     ?_Set_Baud_Rate:	
   851                           ; 1 bytes @ 0x0
   852                           
   853  0070                     ?_Init_Transmit:	
   854                           ; 1 bytes @ 0x0
   855                           
   856  0070                     ?_Init_Receive:	
   857                           ; 1 bytes @ 0x0
   858                           
   859  0070                     ?_USART_Write:	
   860                           ; 1 bytes @ 0x0
   861                           
   862  0070                     ?_ADC_Select:	
   863                           ; 1 bytes @ 0x0
   864                           
   865  0070                     ?_LCD_Port:	
   866                           ; 1 bytes @ 0x0
   867                           
   868  0070                     ?_ISR:	
   869                           ; 1 bytes @ 0x0
   870                           
   871  0070                     ??_ISR:	
   872                           ; 1 bytes @ 0x0
   873                           
   874  0070                     ?_main:	
   875                           ; 1 bytes @ 0x0
   876                           
   877  0070                     ?_LCD_Write_Char:	
   878                           ; 1 bytes @ 0x0
   879                           
   880  0070                     ?_LCD_Command:	
   881                           ; 1 bytes @ 0x0
   882                           
   883                           
   884                           ; 1 bytes @ 0x0
   885  0070                     	ds	2
   886  0072                     ?___ftge:
   887  0072                     ??_setup:	
   888                           ; 1 bit 
   889                           
   890  0072                     ??_initADC:	
   891                           ; 1 bytes @ 0x2
   892                           
   893  0072                     ??_Set_Baud_Rate:	
   894                           ; 1 bytes @ 0x2
   895                           
   896  0072                     ??_Init_Transmit:	
   897                           ; 1 bytes @ 0x2
   898                           
   899  0072                     ??_Init_Receive:	
   900                           ; 1 bytes @ 0x2
   901                           
   902  0072                     ??_USART_Write:	
   903                           ; 1 bytes @ 0x2
   904                           
   905  0072                     ??_ADC_Select:	
   906                           ; 1 bytes @ 0x2
   907                           
   908  0072                     ??_LCD_Port:	
   909                           ; 1 bytes @ 0x2
   910                           
   911  0072                     ??_isdigit:	
   912                           ; 1 bytes @ 0x2
   913                           
   914  0072                     ?___wmul:	
   915                           ; 1 bytes @ 0x2
   916                           
   917  0072                     ?___awmod:	
   918                           ; 2 bytes @ 0x2
   919                           
   920  0072                     ?___lwmod:	
   921                           ; 2 bytes @ 0x2
   922                           
   923  0072                     ?___ftpack:	
   924                           ; 2 bytes @ 0x2
   925                           
   926  0072                     ?___ftneg:	
   927                           ; 3 bytes @ 0x2
   928                           
   929  0072                     ?__tdiv_to_l_:	
   930                           ; 3 bytes @ 0x2
   931                           
   932  0072                     ?__div_to_l_:	
   933                           ; 4 bytes @ 0x2
   934                           
   935  0072                     ?___lldiv:	
   936                           ; 4 bytes @ 0x2
   937                           
   938  0072                     LCD_Port@a:	
   939                           ; 4 bytes @ 0x2
   940                           
   941  0072                     USART_Write@a:	
   942                           ; 1 bytes @ 0x2
   943                           
   944  0072                     _isdigit$938:	
   945                           ; 1 bytes @ 0x2
   946                           
   947  0072                     ___wmul@multiplier:	
   948                           ; 1 bytes @ 0x2
   949                           
   950  0072                     ___awmod@divisor:	
   951                           ; 2 bytes @ 0x2
   952                           
   953  0072                     ___lwmod@divisor:	
   954                           ; 2 bytes @ 0x2
   955                           
   956  0072                     __div_to_l_@f1:	
   957                           ; 2 bytes @ 0x2
   958                           
   959  0072                     ___ftpack@arg:	
   960                           ; 3 bytes @ 0x2
   961                           
   962  0072                     __tdiv_to_l_@f1:	
   963                           ; 3 bytes @ 0x2
   964                           
   965  0072                     ___ftge@ff1:	
   966                           ; 3 bytes @ 0x2
   967                           
   968  0072                     ___ftneg@f1:	
   969                           ; 3 bytes @ 0x2
   970                           
   971  0072                     ___lldiv@divisor:	
   972                           ; 3 bytes @ 0x2
   973                           
   974                           
   975                           ; 4 bytes @ 0x2
   976  0072                     	ds	1
   977  0073                     ?_USART_Write_String:
   978  0073                     ??_LCD_Write_Char:	
   979                           ; 1 bytes @ 0x3
   980                           
   981  0073                     ??_LCD_Command:	
   982                           ; 1 bytes @ 0x3
   983                           
   984  0073                     isdigit@c:	
   985                           ; 1 bytes @ 0x3
   986                           
   987  0073                     USART_Write_String@a:	
   988                           ; 1 bytes @ 0x3
   989                           
   990                           
   991                           ; 2 bytes @ 0x3
   992  0073                     	ds	1
   993  0074                     LCD_Write_Char@a:
   994  0074                     ADC_Select@a:	
   995                           ; 1 bytes @ 0x4
   996                           
   997  0074                     ___wmul@multiplicand:	
   998                           ; 1 bytes @ 0x4
   999                           
  1000  0074                     ___awmod@dividend:	
  1001                           ; 2 bytes @ 0x4
  1002                           
  1003  0074                     ___lwmod@dividend:	
  1004                           ; 2 bytes @ 0x4
  1005                           
  1006                           
  1007                           ; 2 bytes @ 0x4
  1008  0074                     	ds	1
  1009  0075                     ??_USART_Write_String:
  1010  0075                     ?_LCD_Write_String:	
  1011                           ; 1 bytes @ 0x5
  1012                           
  1013  0075                     ??___ftneg:	
  1014                           ; 1 bytes @ 0x5
  1015                           
  1016  0075                     LCD_Command@a:	
  1017                           ; 1 bytes @ 0x5
  1018                           
  1019  0075                     ___ftpack@exp:	
  1020                           ; 1 bytes @ 0x5
  1021                           
  1022  0075                     LCD_Write_String@a:	
  1023                           ; 1 bytes @ 0x5
  1024                           
  1025  0075                     __div_to_l_@f2:	
  1026                           ; 2 bytes @ 0x5
  1027                           
  1028  0075                     __tdiv_to_l_@f2:	
  1029                           ; 3 bytes @ 0x5
  1030                           
  1031  0075                     ___ftge@ff2:	
  1032                           ; 3 bytes @ 0x5
  1033                           
  1034                           
  1035                           ; 3 bytes @ 0x5
  1036  0075                     	ds	1
  1037  0076                     ??_LCD_Init:
  1038  0076                     ??_LCD_clear:	
  1039                           ; 1 bytes @ 0x6
  1040                           
  1041  0076                     ?_LCD_Set_Cursor:	
  1042                           ; 1 bytes @ 0x6
  1043                           
  1044  0076                     ??___wmul:	
  1045                           ; 1 bytes @ 0x6
  1046                           
  1047  0076                     ??___awmod:	
  1048                           ; 1 bytes @ 0x6
  1049                           
  1050  0076                     ??___lwmod:	
  1051                           ; 1 bytes @ 0x6
  1052                           
  1053  0076                     LCD_Set_Cursor@y:	
  1054                           ; 1 bytes @ 0x6
  1055                           
  1056  0076                     USART_Write_String@i:	
  1057                           ; 1 bytes @ 0x6
  1058                           
  1059  0076                     ___ftpack@sign:	
  1060                           ; 1 bytes @ 0x6
  1061                           
  1062  0076                     ___wmul@product:	
  1063                           ; 1 bytes @ 0x6
  1064                           
  1065  0076                     ___lldiv@dividend:	
  1066                           ; 2 bytes @ 0x6
  1067                           
  1068                           
  1069                           ; 4 bytes @ 0x6
  1070  0076                     	ds	1
  1071  0077                     ??_LCD_Set_Cursor:
  1072  0077                     ??_LCD_Write_String:	
  1073                           ; 1 bytes @ 0x7
  1074                           
  1075  0077                     ??___ftpack:	
  1076                           ; 1 bytes @ 0x7
  1077                           
  1078  0077                     ___awmod@counter:	
  1079                           ; 1 bytes @ 0x7
  1080                           
  1081  0077                     ___lwmod@counter:	
  1082                           ; 1 bytes @ 0x7
  1083                           
  1084                           
  1085                           ; 1 bytes @ 0x7
  1086  0077                     	ds	1
  1087  0078                     ??___ftge:
  1088  0078                     ??___lwdiv:	
  1089                           ; 1 bytes @ 0x8
  1090                           
  1091  0078                     LCD_Set_Cursor@x:	
  1092                           ; 1 bytes @ 0x8
  1093                           
  1094  0078                     ___awmod@sign:	
  1095                           ; 1 bytes @ 0x8
  1096                           
  1097                           
  1098                           ; 1 bytes @ 0x8
  1099  0078                     	ds	1
  1100  0079                     ??___awdiv:
  1101  0079                     LCD_Set_Cursor@a:	
  1102                           ; 1 bytes @ 0x9
  1103                           
  1104                           
  1105                           ; 1 bytes @ 0x9
  1106  0079                     	ds	1
  1107  007A                     ??___bmul:
  1108  007A                     ??___lldiv:	
  1109                           ; 1 bytes @ 0xA
  1110                           
  1111  007A                     ??___lltoft:	
  1112                           ; 1 bytes @ 0xA
  1113                           
  1114  007A                     ___awtoft@sign:	
  1115                           ; 1 bytes @ 0xA
  1116                           
  1117                           
  1118                           ; 1 bytes @ 0xA
  1119  007A                     	ds	1
  1120  007B                     ??___ftsub:
  1121                           
  1122                           	psect	cstackBANK0
  1123  0020                     __pcstackBANK0:	
  1124                           ; 1 bytes @ 0xB
  1125                           
  1126  0020                     ??__tdiv_to_l_:
  1127  0020                     ??__div_to_l_:	
  1128                           ; 1 bytes @ 0x0
  1129                           
  1130  0020                     ?___awdiv:	
  1131                           ; 1 bytes @ 0x0
  1132                           
  1133  0020                     ?___lwdiv:	
  1134                           ; 2 bytes @ 0x0
  1135                           
  1136  0020                     ?___awtoft:	
  1137                           ; 2 bytes @ 0x0
  1138                           
  1139  0020                     ?___lltoft:	
  1140                           ; 3 bytes @ 0x0
  1141                           
  1142  0020                     LCD_Write_String@i:	
  1143                           ; 3 bytes @ 0x0
  1144                           
  1145  0020                     ___awdiv@divisor:	
  1146                           ; 2 bytes @ 0x0
  1147                           
  1148  0020                     ___awtoft@c:	
  1149                           ; 2 bytes @ 0x0
  1150                           
  1151  0020                     ___lwdiv@divisor:	
  1152                           ; 2 bytes @ 0x0
  1153                           
  1154  0020                     ___lldiv@quotient:	
  1155                           ; 2 bytes @ 0x0
  1156                           
  1157  0020                     ___lltoft@c:	
  1158                           ; 4 bytes @ 0x0
  1159                           
  1160                           
  1161                           ; 4 bytes @ 0x0
  1162  0020                     	ds	2
  1163  0022                     ___awdiv@dividend:
  1164  0022                     ___lwdiv@dividend:	
  1165                           ; 2 bytes @ 0x2
  1166                           
  1167                           
  1168                           ; 2 bytes @ 0x2
  1169  0022                     	ds	1
  1170  0023                     ??___awtoft:
  1171                           
  1172                           ; 1 bytes @ 0x3
  1173  0023                     	ds	1
  1174  0024                     ___lldiv@counter:
  1175  0024                     ___awdiv@counter:	
  1176                           ; 1 bytes @ 0x4
  1177                           
  1178  0024                     ___lltoft@exp:	
  1179                           ; 1 bytes @ 0x4
  1180                           
  1181  0024                     ___lwdiv@counter:	
  1182                           ; 1 bytes @ 0x4
  1183                           
  1184  0024                     __tdiv_to_l_@quot:	
  1185                           ; 1 bytes @ 0x4
  1186                           
  1187                           
  1188                           ; 4 bytes @ 0x4
  1189  0024                     	ds	1
  1190  0025                     ?___llmod:
  1191  0025                     ___awdiv@sign:	
  1192                           ; 4 bytes @ 0x5
  1193                           
  1194  0025                     ___lwdiv@quotient:	
  1195                           ; 1 bytes @ 0x5
  1196                           
  1197  0025                     ___llmod@divisor:	
  1198                           ; 2 bytes @ 0x5
  1199                           
  1200                           
  1201                           ; 4 bytes @ 0x5
  1202  0025                     	ds	1
  1203  0026                     ___awdiv@quotient:
  1204                           
  1205                           ; 2 bytes @ 0x6
  1206  0026                     	ds	2
  1207  0028                     ?___bmul:
  1208  0028                     ___bmul@multiplicand:	
  1209                           ; 1 bytes @ 0x8
  1210                           
  1211  0028                     __tdiv_to_l_@cntr:	
  1212                           ; 1 bytes @ 0x8
  1213                           
  1214  0028                     __div_to_l_@quot:	
  1215                           ; 1 bytes @ 0x8
  1216                           
  1217                           
  1218                           ; 4 bytes @ 0x8
  1219  0028                     	ds	1
  1220  0029                     ___bmul@product:
  1221  0029                     __tdiv_to_l_@exp1:	
  1222                           ; 1 bytes @ 0x9
  1223                           
  1224  0029                     ___llmod@dividend:	
  1225                           ; 1 bytes @ 0x9
  1226                           
  1227                           
  1228                           ; 4 bytes @ 0x9
  1229  0029                     	ds	1
  1230  002A                     ___bmul@multiplier:
  1231                           
  1232                           ; 1 bytes @ 0xA
  1233  002A                     	ds	1
  1234  002B                     ?___ftmul:
  1235  002B                     ___ftmul@f1:	
  1236                           ; 3 bytes @ 0xB
  1237                           
  1238                           
  1239                           ; 3 bytes @ 0xB
  1240  002B                     	ds	1
  1241  002C                     __div_to_l_@cntr:
  1242                           
  1243                           ; 1 bytes @ 0xC
  1244  002C                     	ds	1
  1245  002D                     ??___llmod:
  1246  002D                     __div_to_l_@exp1:	
  1247                           ; 1 bytes @ 0xD
  1248                           
  1249                           
  1250                           ; 1 bytes @ 0xD
  1251  002D                     	ds	1
  1252  002E                     ___llmod@counter:
  1253  002E                     ___ftmul@f2:	
  1254                           ; 1 bytes @ 0xE
  1255                           
  1256                           
  1257                           ; 3 bytes @ 0xE
  1258  002E                     	ds	3
  1259  0031                     ??___ftmul:
  1260                           
  1261                           ; 1 bytes @ 0x11
  1262  0031                     	ds	4
  1263  0035                     ___ftmul@exp:
  1264                           
  1265                           ; 1 bytes @ 0x15
  1266  0035                     	ds	1
  1267  0036                     ___ftmul@f3_as_product:
  1268                           
  1269                           ; 3 bytes @ 0x16
  1270  0036                     	ds	3
  1271  0039                     ___ftmul@cntr:
  1272                           
  1273                           ; 1 bytes @ 0x19
  1274  0039                     	ds	1
  1275  003A                     ___ftmul@sign:
  1276                           
  1277                           ; 1 bytes @ 0x1A
  1278  003A                     	ds	1
  1279  003B                     ?_LeerADC:
  1280  003B                     ?_fround:	
  1281                           ; 3 bytes @ 0x1B
  1282                           
  1283  003B                     ?_scale:	
  1284                           ; 3 bytes @ 0x1B
  1285                           
  1286                           
  1287                           ; 3 bytes @ 0x1B
  1288  003B                     	ds	3
  1289  003E                     ??_LeerADC:
  1290  003E                     ??_fround:	
  1291                           ; 1 bytes @ 0x1E
  1292                           
  1293  003E                     ??_scale:	
  1294                           ; 1 bytes @ 0x1E
  1295                           
  1296                           
  1297                           ; 1 bytes @ 0x1E
  1298  003E                     	ds	2
  1299  0040                     LeerADC@x:
  1300  0040                     _scale$1131:	
  1301                           ; 1 bytes @ 0x20
  1302                           
  1303                           
  1304                           ; 3 bytes @ 0x20
  1305  0040                     	ds	1
  1306  0041                     LeerADC@a:
  1307                           
  1308                           ; 3 bytes @ 0x21
  1309  0041                     	ds	2
  1310  0043                     scale@scl:
  1311                           
  1312                           ; 1 bytes @ 0x23
  1313  0043                     	ds	1
  1314  0044                     ?___fttol:
  1315  0044                     ___fttol@f1:	
  1316                           ; 4 bytes @ 0x24
  1317                           
  1318  0044                     _fround$1130:	
  1319                           ; 3 bytes @ 0x24
  1320                           
  1321                           
  1322                           ; 3 bytes @ 0x24
  1323  0044                     	ds	3
  1324  0047                     _fround$1129:
  1325                           
  1326                           ; 3 bytes @ 0x27
  1327  0047                     	ds	1
  1328  0048                     ??___fttol:
  1329                           
  1330                           ; 1 bytes @ 0x28
  1331  0048                     	ds	2
  1332  004A                     fround@prec:
  1333                           
  1334                           ; 1 bytes @ 0x2A
  1335  004A                     	ds	1
  1336  004B                     ?___ftadd:
  1337  004B                     ___ftadd@f1:	
  1338                           ; 3 bytes @ 0x2B
  1339                           
  1340                           
  1341                           ; 3 bytes @ 0x2B
  1342  004B                     	ds	1
  1343  004C                     ___fttol@sign1:
  1344                           
  1345                           ; 1 bytes @ 0x2C
  1346  004C                     	ds	1
  1347  004D                     ___fttol@lval:
  1348                           
  1349                           ; 4 bytes @ 0x2D
  1350  004D                     	ds	1
  1351  004E                     ___ftadd@f2:
  1352                           
  1353                           ; 3 bytes @ 0x2E
  1354  004E                     	ds	3
  1355  0051                     ??___ftadd:
  1356  0051                     ___fttol@exp1:	
  1357                           ; 1 bytes @ 0x31
  1358                           
  1359                           
  1360                           ; 1 bytes @ 0x31
  1361  0051                     	ds	4
  1362  0055                     ___ftadd@sign:
  1363                           
  1364                           ; 1 bytes @ 0x35
  1365  0055                     	ds	1
  1366  0056                     ___ftadd@exp2:
  1367                           
  1368                           ; 1 bytes @ 0x36
  1369  0056                     	ds	1
  1370  0057                     ___ftadd@exp1:
  1371                           
  1372                           ; 1 bytes @ 0x37
  1373  0057                     	ds	1
  1374  0058                     ?___ftsub:
  1375  0058                     ___ftsub@f2:	
  1376                           ; 3 bytes @ 0x38
  1377                           
  1378                           
  1379                           ; 3 bytes @ 0x38
  1380  0058                     	ds	3
  1381  005B                     ___ftsub@f1:
  1382                           
  1383                           ; 3 bytes @ 0x3B
  1384  005B                     	ds	3
  1385  005E                     ?_sprintf:
  1386  005E                     sprintf@f:	
  1387                           ; 2 bytes @ 0x3E
  1388                           
  1389                           
  1390                           ; 1 bytes @ 0x3E
  1391  005E                     	ds	9
  1392  0067                     ??_sprintf:
  1393                           
  1394                           ; 1 bytes @ 0x47
  1395  0067                     	ds	6
  1396                           
  1397                           	psect	maintext
  1398  06D5                     __pmaintext:	
  1399 ;;
  1400 ;;Main: autosize = 0, tempsize = 3, incstack = 0, save=0
  1401 ;;
  1402 ;; *************** function _main *****************
  1403 ;; Defined at:
  1404 ;;		line 92 in file "lab3_main.c"
  1405 ;; Parameters:    Size  Location     Type
  1406 ;;		None
  1407 ;; Auto vars:     Size  Location     Type
  1408 ;;		None
  1409 ;; Return value:  Size  Location     Type
  1410 ;;                  1    wreg      void 
  1411 ;; Registers used:
  1412 ;;		wreg, fsr0l, fsr0h, status,2, status,0, btemp+1, pclath, cstack
  1413 ;; Tracked objects:
  1414 ;;		On entry : B00/0
  1415 ;;		On exit  : 0/0
  1416 ;;		Unchanged: 0/0
  1417 ;; Data sizes:     COMMON   BANK0   BANK1   BANK3   BANK2
  1418 ;;      Params:         0       0       0       0       0
  1419 ;;      Locals:         0       0       0       0       0
  1420 ;;      Temps:          0       0       3       0       0
  1421 ;;      Totals:         0       0       3       0       0
  1422 ;;Total ram usage:        3 bytes
  1423 ;; Hardware stack levels required when called:    5
  1424 ;; This function calls:
  1425 ;;		_Init_Receive
  1426 ;;		_Init_Transmit
  1427 ;;		_LCD_Init
  1428 ;;		_LCD_Set_Cursor
  1429 ;;		_LCD_Write_String
  1430 ;;		_LCD_clear
  1431 ;;		_LeerADC
  1432 ;;		_Set_Baud_Rate
  1433 ;;		_USART_Write
  1434 ;;		_USART_Write_String
  1435 ;;		_initADC
  1436 ;;		_setup
  1437 ;;		_sprintf
  1438 ;; This function is called by:
  1439 ;;		Startup code after reset
  1440 ;; This function uses a non-reentrant model
  1441 ;;
  1442                           
  1443                           
  1444                           ;psect for function _main
  1445  06D5                     _main:
  1446  06D5                     l4011:	
  1447                           ;incstack = 0
  1448                           ; Regs used in _main: [wreg-fsr0h+status,2+status,0+btemp+1+pclath+cstack]
  1449                           
  1450                           
  1451                           ;lab3_main.c: 95:     setup();
  1452  06D5  160A  158A  260D  120A  118A  	fcall	_setup
  1453                           
  1454                           ;lab3_main.c: 96:     initADC();
  1455  06DA  160A  158A  25A7  120A  118A  	fcall	_initADC
  1456                           
  1457                           ;lab3_main.c: 97:     LCD_Init();
  1458  06DF  160A  118A  2125  120A  118A  	fcall	_LCD_Init
  1459                           
  1460                           ;lab3_main.c: 98:     LCD_clear();
  1461  06E4  160A  158A  259A  120A  118A  	fcall	_LCD_clear
  1462                           
  1463                           ;lab3_main.c: 100:     Set_Baud_Rate();
  1464  06E9  160A  158A  256A  120A  118A  	fcall	_Set_Baud_Rate
  1465  06EE                     l4013:
  1466                           
  1467                           ;lab3_main.c: 102:     Init_Transmit();
  1468  06EE  120A  118A  27F0  120A  118A  	fcall	_Init_Transmit
  1469  06F3                     l4015:
  1470                           
  1471                           ;lab3_main.c: 104:     Init_Receive();
  1472  06F3  160A  158A  257C  120A  118A  	fcall	_Init_Receive
  1473  06F8                     l4017:
  1474                           
  1475                           ;lab3_main.c: 115:         V1 = LeerADC(0);
  1476  06F8  3000               	movlw	0
  1477  06F9  160A  118A  20DD  120A  118A  	fcall	_LeerADC
  1478  06FE  1283               	bcf	3,5	;RP0=0, select bank0
  1479  06FF  1303               	bcf	3,6	;RP1=0, select bank0
  1480  0700  083B               	movf	?_LeerADC,w
  1481  0701  1683               	bsf	3,5	;RP0=1, select bank1
  1482  0702  1303               	bcf	3,6	;RP1=0, select bank1
  1483  0703  00BF               	movwf	_V1^(0+128)
  1484  0704  1283               	bcf	3,5	;RP0=0, select bank0
  1485  0705  1303               	bcf	3,6	;RP1=0, select bank0
  1486  0706  083C               	movf	?_LeerADC+1,w
  1487  0707  1683               	bsf	3,5	;RP0=1, select bank1
  1488  0708  1303               	bcf	3,6	;RP1=0, select bank1
  1489  0709  00C0               	movwf	(_V1+1)^(0+128)
  1490  070A  1283               	bcf	3,5	;RP0=0, select bank0
  1491  070B  1303               	bcf	3,6	;RP1=0, select bank0
  1492  070C  083D               	movf	?_LeerADC+2,w
  1493  070D  1683               	bsf	3,5	;RP0=1, select bank1
  1494  070E  1303               	bcf	3,6	;RP1=0, select bank1
  1495  070F  00C1               	movwf	(_V1+2)^(0+128)
  1496  0710                     l4019:
  1497                           
  1498                           ;lab3_main.c: 116:         V2 = LeerADC(1);
  1499  0710  3001               	movlw	1
  1500  0711  160A  118A  20DD  120A  118A  	fcall	_LeerADC
  1501  0716  1283               	bcf	3,5	;RP0=0, select bank0
  1502  0717  1303               	bcf	3,6	;RP1=0, select bank0
  1503  0718  083B               	movf	?_LeerADC,w
  1504  0719  1683               	bsf	3,5	;RP0=1, select bank1
  1505  071A  1303               	bcf	3,6	;RP1=0, select bank1
  1506  071B  00BC               	movwf	_V2^(0+128)
  1507  071C  1283               	bcf	3,5	;RP0=0, select bank0
  1508  071D  1303               	bcf	3,6	;RP1=0, select bank0
  1509  071E  083C               	movf	?_LeerADC+1,w
  1510  071F  1683               	bsf	3,5	;RP0=1, select bank1
  1511  0720  1303               	bcf	3,6	;RP1=0, select bank1
  1512  0721  00BD               	movwf	(_V2+1)^(0+128)
  1513  0722  1283               	bcf	3,5	;RP0=0, select bank0
  1514  0723  1303               	bcf	3,6	;RP1=0, select bank0
  1515  0724  083D               	movf	?_LeerADC+2,w
  1516  0725  1683               	bsf	3,5	;RP0=1, select bank1
  1517  0726  1303               	bcf	3,6	;RP1=0, select bank1
  1518  0727  00BE               	movwf	(_V2+2)^(0+128)
  1519  0728                     l4021:
  1520                           
  1521                           ;lab3_main.c: 118:         USART_Write_String("V1     V2   CONT \n");
  1522  0728  3077               	movlw	(low ((STR_1-__stringbase)| (0+32768)))& (0+255)
  1523  0729  00F3               	movwf	USART_Write_String@a
  1524  072A  3080               	movlw	128
  1525  072B  00F4               	movwf	USART_Write_String@a+1
  1526  072C  160A  158A  26A4  120A  118A  	fcall	_USART_Write_String
  1527  0731                     l4023:
  1528                           
  1529                           ;lab3_main.c: 120:         USART_Write(13);
  1530  0731  300D               	movlw	13
  1531  0732  160A  158A  258E  120A  118A  	fcall	_USART_Write
  1532  0737                     l4025:
  1533                           
  1534                           ;lab3_main.c: 121:         USART_Write(10);
  1535  0737  300A               	movlw	10
  1536  0738  160A  158A  258E  120A  118A  	fcall	_USART_Write
  1537  073D                     l4027:
  1538                           
  1539                           ;lab3_main.c: 124:         sprintf(pantalla, "%1.2f   %1.2f %3d", V1,V2,contador);
  1540  073D  308A               	movlw	(low ((STR_2-__stringbase)| (0+32768)))& (0+255)
  1541  073E  1683               	bsf	3,5	;RP0=1, select bank1
  1542  073F  1303               	bcf	3,6	;RP1=0, select bank1
  1543  0740  00B9               	movwf	??_main^(0+128)
  1544  0741  0839               	movf	??_main^(0+128),w
  1545  0742  1283               	bcf	3,5	;RP0=0, select bank0
  1546  0743  1303               	bcf	3,6	;RP1=0, select bank0
  1547  0744  00DE               	movwf	sprintf@f
  1548  0745  1683               	bsf	3,5	;RP0=1, select bank1
  1549  0746  1303               	bcf	3,6	;RP1=0, select bank1
  1550  0747  083F               	movf	_V1^(0+128),w
  1551  0748  1283               	bcf	3,5	;RP0=0, select bank0
  1552  0749  1303               	bcf	3,6	;RP1=0, select bank0
  1553  074A  00DF               	movwf	?_sprintf+1
  1554  074B  1683               	bsf	3,5	;RP0=1, select bank1
  1555  074C  1303               	bcf	3,6	;RP1=0, select bank1
  1556  074D  0840               	movf	(_V1+1)^(0+128),w
  1557  074E  1283               	bcf	3,5	;RP0=0, select bank0
  1558  074F  1303               	bcf	3,6	;RP1=0, select bank0
  1559  0750  00E0               	movwf	?_sprintf+2
  1560  0751  1683               	bsf	3,5	;RP0=1, select bank1
  1561  0752  1303               	bcf	3,6	;RP1=0, select bank1
  1562  0753  0841               	movf	(_V1+2)^(0+128),w
  1563  0754  1283               	bcf	3,5	;RP0=0, select bank0
  1564  0755  1303               	bcf	3,6	;RP1=0, select bank0
  1565  0756  00E1               	movwf	?_sprintf+3
  1566  0757  1683               	bsf	3,5	;RP0=1, select bank1
  1567  0758  1303               	bcf	3,6	;RP1=0, select bank1
  1568  0759  083C               	movf	_V2^(0+128),w
  1569  075A  1283               	bcf	3,5	;RP0=0, select bank0
  1570  075B  1303               	bcf	3,6	;RP1=0, select bank0
  1571  075C  00E2               	movwf	?_sprintf+4
  1572  075D  1683               	bsf	3,5	;RP0=1, select bank1
  1573  075E  1303               	bcf	3,6	;RP1=0, select bank1
  1574  075F  083D               	movf	(_V2+1)^(0+128),w
  1575  0760  1283               	bcf	3,5	;RP0=0, select bank0
  1576  0761  1303               	bcf	3,6	;RP1=0, select bank0
  1577  0762  00E3               	movwf	?_sprintf+5
  1578  0763  1683               	bsf	3,5	;RP0=1, select bank1
  1579  0764  1303               	bcf	3,6	;RP1=0, select bank1
  1580  0765  083E               	movf	(_V2+2)^(0+128),w
  1581  0766  1283               	bcf	3,5	;RP0=0, select bank0
  1582  0767  1303               	bcf	3,6	;RP1=0, select bank0
  1583  0768  00E4               	movwf	?_sprintf+6
  1584  0769  086E               	movf	_contador,w
  1585  076A  1683               	bsf	3,5	;RP0=1, select bank1
  1586  076B  1303               	bcf	3,6	;RP1=0, select bank1
  1587  076C  00BA               	movwf	(??_main+1)^(0+128)
  1588  076D  01BB               	clrf	((??_main+1)^(0+128)+1)
  1589  076E  083A               	movf	(??_main+1)^(0+128),w
  1590  076F  1283               	bcf	3,5	;RP0=0, select bank0
  1591  0770  1303               	bcf	3,6	;RP1=0, select bank0
  1592  0771  00E5               	movwf	?_sprintf+7
  1593  0772  1683               	bsf	3,5	;RP0=1, select bank1
  1594  0773  1303               	bcf	3,6	;RP1=0, select bank1
  1595  0774  083B               	movf	(??_main+2)^(0+128),w
  1596  0775  1283               	bcf	3,5	;RP0=0, select bank0
  1597  0776  1303               	bcf	3,6	;RP1=0, select bank0
  1598  0777  00E6               	movwf	?_sprintf+8
  1599  0778  30C2               	movlw	(low (_pantalla| 0))& (0+255)
  1600  0779  120A  158A  2518  120A  118A  	fcall	_sprintf
  1601  077E                     l4029:
  1602                           
  1603                           ;lab3_main.c: 126:         USART_Write_String(pantalla);
  1604  077E  30C2               	movlw	(low (_pantalla| 0))& (0+255)
  1605  077F  00F3               	movwf	USART_Write_String@a
  1606  0780  3000               	movlw	0
  1607  0781  00F4               	movwf	USART_Write_String@a+1
  1608  0782  160A  158A  26A4  120A  118A  	fcall	_USART_Write_String
  1609  0787                     l4031:
  1610                           
  1611                           ;lab3_main.c: 128:         USART_Write(13);
  1612  0787  300D               	movlw	13
  1613  0788  160A  158A  258E  120A  118A  	fcall	_USART_Write
  1614  078D                     l4033:
  1615                           
  1616                           ;lab3_main.c: 129:         USART_Write(10);
  1617  078D  300A               	movlw	10
  1618  078E  160A  158A  258E  120A  118A  	fcall	_USART_Write
  1619  0793                     l4035:
  1620                           
  1621                           ;lab3_main.c: 131:         LCD_clear();
  1622  0793  160A  158A  259A  120A  118A  	fcall	_LCD_clear
  1623  0798                     l4037:
  1624                           
  1625                           ;lab3_main.c: 133:         LCD_Set_Cursor(1,1);
  1626  0798  01F6               	clrf	LCD_Set_Cursor@y
  1627  0799  0AF6               	incf	LCD_Set_Cursor@y,f
  1628  079A  3001               	movlw	1
  1629  079B  160A  158A  25E9  120A  118A  	fcall	_LCD_Set_Cursor
  1630  07A0                     l4039:
  1631                           
  1632                           ;lab3_main.c: 134:         LCD_Write_String("V1   V2    CONT");
  1633  07A0  309C               	movlw	(low ((STR_3-__stringbase)| (0+32768)))& (0+255)
  1634  07A1  00F5               	movwf	LCD_Write_String@a
  1635  07A2  3080               	movlw	128
  1636  07A3  00F6               	movwf	LCD_Write_String@a+1
  1637  07A4  160A  158A  2774  120A  118A  	fcall	_LCD_Write_String
  1638                           
  1639                           ;lab3_main.c: 135:         LCD_Set_Cursor(2,1);
  1640  07A9  01F6               	clrf	LCD_Set_Cursor@y
  1641  07AA  0AF6               	incf	LCD_Set_Cursor@y,f
  1642  07AB  3002               	movlw	2
  1643  07AC  160A  158A  25E9  120A  118A  	fcall	_LCD_Set_Cursor
  1644  07B1                     l4041:
  1645                           
  1646                           ;lab3_main.c: 136:         LCD_Write_String(pantalla);
  1647  07B1  30C2               	movlw	(low (_pantalla| 0))& (0+255)
  1648  07B2  00F5               	movwf	LCD_Write_String@a
  1649  07B3  3000               	movlw	0
  1650  07B4  00F6               	movwf	LCD_Write_String@a+1
  1651  07B5  160A  158A  2774  120A  118A  	fcall	_LCD_Write_String
  1652  07BA                     l4043:
  1653                           
  1654                           ;lab3_main.c: 138:         if(RCIF==1){
  1655  07BA  1283               	bcf	3,5	;RP0=0, select bank0
  1656  07BB  1303               	bcf	3,6	;RP1=0, select bank0
  1657  07BC  1E8C               	btfss	12,5	;volatile
  1658  07BD  2FBF               	goto	u5871
  1659  07BE  2FC0               	goto	u5870
  1660  07BF                     u5871:
  1661  07BF  2FDE               	goto	l4053
  1662  07C0                     u5870:
  1663  07C0                     l4045:
  1664                           
  1665                           ;lab3_main.c: 142:             recibido = RCREG;
  1666  07C0  081A               	movf	26,w	;volatile
  1667  07C1  1683               	bsf	3,5	;RP0=1, select bank1
  1668  07C2  1303               	bcf	3,6	;RP1=0, select bank1
  1669  07C3  00B9               	movwf	??_main^(0+128)
  1670  07C4  0839               	movf	??_main^(0+128),w
  1671  07C5  1283               	bcf	3,5	;RP0=0, select bank0
  1672  07C6  1303               	bcf	3,6	;RP1=0, select bank0
  1673  07C7  00ED               	movwf	_recibido
  1674  07C8                     l4047:
  1675                           
  1676                           ;lab3_main.c: 143:             if(recibido == '+'){
  1677  07C8  302B               	movlw	43
  1678  07C9  066D               	xorwf	_recibido,w
  1679  07CA  1D03               	btfss	3,2
  1680  07CB  2FCD               	goto	u5881
  1681  07CC  2FCE               	goto	u5880
  1682  07CD                     u5881:
  1683  07CD  2FD6               	goto	l86
  1684  07CE                     u5880:
  1685  07CE                     l4049:
  1686                           
  1687                           ;lab3_main.c: 144:                 contador++;
  1688  07CE  3001               	movlw	1
  1689  07CF  1683               	bsf	3,5	;RP0=1, select bank1
  1690  07D0  1303               	bcf	3,6	;RP1=0, select bank1
  1691  07D1  00B9               	movwf	??_main^(0+128)
  1692  07D2  0839               	movf	??_main^(0+128),w
  1693  07D3  1283               	bcf	3,5	;RP0=0, select bank0
  1694  07D4  1303               	bcf	3,6	;RP1=0, select bank0
  1695  07D5  07EE               	addwf	_contador,f
  1696  07D6                     l86:	
  1697                           ;lab3_main.c: 145:             }
  1698                           
  1699                           
  1700                           ;lab3_main.c: 146:             if(recibido == '-'){
  1701  07D6  302D               	movlw	45
  1702  07D7  066D               	xorwf	_recibido,w
  1703  07D8  1D03               	btfss	3,2
  1704  07D9  2FDB               	goto	u5891
  1705  07DA  2FDC               	goto	u5890
  1706  07DB                     u5891:
  1707  07DB  2FDE               	goto	l4053
  1708  07DC                     u5890:
  1709  07DC                     l4051:
  1710                           
  1711                           ;lab3_main.c: 147:                 contador--;
  1712  07DC  3001               	movlw	1
  1713  07DD  02EE               	subwf	_contador,f
  1714  07DE                     l4053:
  1715                           
  1716                           ;lab3_main.c: 153:         _delay((unsigned long)((500)*(8000000/4000.0)));
  1717  07DE  3006               	movlw	6
  1718  07DF  1683               	bsf	3,5	;RP0=1, select bank1
  1719  07E0  1303               	bcf	3,6	;RP1=0, select bank1
  1720  07E1  00BB               	movwf	(??_main^(0+128)+2)
  1721  07E2  3013               	movlw	19
  1722  07E3  00BA               	movwf	(??_main^(0+128)+1)
  1723  07E4  30AD               	movlw	173
  1724  07E5  00B9               	movwf	??_main^(0+128)
  1725  07E6                     u5907:
  1726  07E6  0BB9               	decfsz	??_main^(0+128),f
  1727  07E7  2FE6               	goto	u5907
  1728  07E8  0BBA               	decfsz	(??_main^(0+128)+1),f
  1729  07E9  2FE6               	goto	u5907
  1730  07EA  0BBB               	decfsz	(??_main^(0+128)+2),f
  1731  07EB  2FE6               	goto	u5907
  1732  07EC  2EF8               	goto	l4017
  1733  07ED  120A  118A  280C   	ljmp	start
  1734  07F0                     __end_of_main:
  1735                           
  1736                           	psect	text1
  1737  0D18                     __ptext1:	
  1738 ;; *************** function _sprintf *****************
  1739 ;; Defined at:
  1740 ;;		line 505 in file "D:\Microchip\xc8\v2.31\pic\sources\c90\common\doprnt.c"
  1741 ;; Parameters:    Size  Location     Type
  1742 ;;  sp              1    wreg     PTR unsigned char 
  1743 ;;		 -> pantalla(20), 
  1744 ;;  f               1   62[BANK0 ] PTR const unsigned char 
  1745 ;;		 -> STR_2(18), 
  1746 ;; Auto vars:     Size  Location     Type
  1747 ;;  sp              1   21[BANK1 ] PTR unsigned char 
  1748 ;;		 -> pantalla(20), 
  1749 ;;  val             4   12[BANK1 ] unsigned long 
  1750 ;;  tmpval          4    8[BANK1 ] struct .
  1751 ;;  fval            3   18[BANK1 ] struct .
  1752 ;;  prec            2   22[BANK1 ] int 
  1753 ;;  eexp            2   16[BANK1 ] int 
  1754 ;;  width           2    6[BANK1 ] int 
  1755 ;;  flag            2    4[BANK1 ] unsigned short 
  1756 ;;  cp              2    0        PTR const unsigned char 
  1757 ;;  len             2    0        unsigned int 
  1758 ;;  c               1   24[BANK1 ] unsigned char 
  1759 ;;  ap              1    3[BANK1 ] PTR void [1]
  1760 ;;		 -> ?_sprintf(2), 
  1761 ;;  d               1    0        unsigned char 
  1762 ;; Return value:  Size  Location     Type
  1763 ;;                  2   62[BANK0 ] int 
  1764 ;; Registers used:
  1765 ;;		wreg, fsr0l, fsr0h, status,2, status,0, btemp+1, pclath, cstack
  1766 ;; Tracked objects:
  1767 ;;		On entry : 0/0
  1768 ;;		On exit  : 0/0
  1769 ;;		Unchanged: 0/0
  1770 ;; Data sizes:     COMMON   BANK0   BANK1   BANK3   BANK2
  1771 ;;      Params:         0       9       0       0       0
  1772 ;;      Locals:         0       0      25       0       0
  1773 ;;      Temps:          0       6       0       0       0
  1774 ;;      Totals:         0      15      25       0       0
  1775 ;;Total ram usage:       40 bytes
  1776 ;; Hardware stack levels used:    1
  1777 ;; Hardware stack levels required when called:    4
  1778 ;; This function calls:
  1779 ;;		___awdiv
  1780 ;;		___ftadd
  1781 ;;		___ftge
  1782 ;;		___ftmul
  1783 ;;		___ftneg
  1784 ;;		___ftsub
  1785 ;;		___fttol
  1786 ;;		___lldiv
  1787 ;;		___llmod
  1788 ;;		___lltoft
  1789 ;;		___wmul
  1790 ;;		__div_to_l_
  1791 ;;		__tdiv_to_l_
  1792 ;;		_fround
  1793 ;;		_isdigit
  1794 ;;		_scale
  1795 ;; This function is called by:
  1796 ;;		_main
  1797 ;; This function uses a non-reentrant model
  1798 ;;
  1799                           
  1800                           
  1801                           ;psect for function _sprintf
  1802  0D18                     _sprintf:
  1803                           
  1804                           ;incstack = 0
  1805                           ; Regs used in _sprintf: [wreg-fsr0h+status,2+status,0+btemp+1+pclath+cstack]
  1806                           ;sprintf@sp stored from wreg
  1807  0D18  1683               	bsf	3,5	;RP0=1, select bank1
  1808  0D19  1303               	bcf	3,6	;RP1=0, select bank1
  1809  0D1A  00B5               	movwf	sprintf@sp^(0+128)
  1810  0D1B                     l3699:
  1811                           
  1812                           ;D:\Microchip\xc8\v2.31\pic\sources\c90\common\doprnt.c: 505: sprintf(char * sp, const c
      +                          har * f, ...);D:\Microchip\xc8\v2.31\pic\sources\c90\common\doprnt.c: 506: {;D:\Microchi
      +                          p\xc8\v2.31\pic\sources\c90\common\doprnt.c: 507:  va_list ap;;D:\Microchip\xc8\v2.31\pi
      +                          c\sources\c90\common\doprnt.c: 512:  char c;;D:\Microchip\xc8\v2.31\pic\sources\c90\comm
      +                          on\doprnt.c: 514:  int width;;D:\Microchip\xc8\v2.31\pic\sources\c90\common\doprnt.c: 51
      +                          7:  int prec;;D:\Microchip\xc8\v2.31\pic\sources\c90\common\doprnt.c: 525:  unsigned sho
      +                          rt flag;
  1813  0D1B  305F               	movlw	(low ((?_sprintf| 0+1)))& (0+255)
  1814  0D1C  1283               	bcf	3,5	;RP0=0, select bank0
  1815  0D1D  1303               	bcf	3,6	;RP1=0, select bank0
  1816  0D1E  00E7               	movwf	??_sprintf
  1817  0D1F  0867               	movf	??_sprintf,w
  1818  0D20  1683               	bsf	3,5	;RP0=1, select bank1
  1819  0D21  1303               	bcf	3,6	;RP1=0, select bank1
  1820  0D22  00A3               	movwf	sprintf@ap^(0+128)
  1821  0D23                     L1:
  1822                           
  1823                           ;D:\Microchip\xc8\v2.31\pic\sources\c90\common\doprnt.c: 553:  while((c = *f++)) {
  1824  0D23  120A  118A  2EB7   	goto	l3979
  1825  0D26                     l3701:
  1826                           
  1827                           ;D:\Microchip\xc8\v2.31\pic\sources\c90\common\doprnt.c: 555:   if(c != '%')
  1828  0D26  3025               	movlw	37
  1829  0D27  0638               	xorwf	sprintf@c^(0+128),w
  1830  0D28  1903               	btfsc	3,2
  1831  0D29  2D2B               	goto	u5281
  1832  0D2A  2D2C               	goto	u5280
  1833  0D2B                     u5281:
  1834  0D2B  2D40               	goto	l3707
  1835  0D2C                     u5280:
  1836  0D2C                     l3703:
  1837                           
  1838                           ;D:\Microchip\xc8\v2.31\pic\sources\c90\common\doprnt.c: 557:   {;D:\Microchip\xc8\v2.31
      +                          \pic\sources\c90\common\doprnt.c: 558:    ((*sp++ = (c)));
  1839  0D2C  0838               	movf	sprintf@c^(0+128),w
  1840  0D2D  1283               	bcf	3,5	;RP0=0, select bank0
  1841  0D2E  1303               	bcf	3,6	;RP1=0, select bank0
  1842  0D2F  00E7               	movwf	??_sprintf
  1843  0D30  1683               	bsf	3,5	;RP0=1, select bank1
  1844  0D31  1303               	bcf	3,6	;RP1=0, select bank1
  1845  0D32  0835               	movf	sprintf@sp^(0+128),w
  1846  0D33  0084               	movwf	4
  1847  0D34  1283               	bcf	3,5	;RP0=0, select bank0
  1848  0D35  1303               	bcf	3,6	;RP1=0, select bank0
  1849  0D36  0867               	movf	??_sprintf,w
  1850  0D37  1383               	bcf	3,7	;select IRP bank0
  1851  0D38  0080               	movwf	0
  1852  0D39                     l3705:
  1853  0D39  3001               	movlw	1
  1854  0D3A  00E7               	movwf	??_sprintf
  1855  0D3B  0867               	movf	??_sprintf,w
  1856  0D3C  1683               	bsf	3,5	;RP0=1, select bank1
  1857  0D3D  1303               	bcf	3,6	;RP1=0, select bank1
  1858  0D3E  07B5               	addwf	sprintf@sp^(0+128),f
  1859                           
  1860                           ;D:\Microchip\xc8\v2.31\pic\sources\c90\common\doprnt.c: 559:    continue;
  1861  0D3F  2D23               	goto	L1
  1862  0D40                     l3707:
  1863                           
  1864                           ;D:\Microchip\xc8\v2.31\pic\sources\c90\common\doprnt.c: 563:   width = 0;
  1865  0D40  01A6               	clrf	sprintf@width^(0+128)
  1866  0D41  01A7               	clrf	(sprintf@width+1)^(0+128)
  1867                           
  1868                           ;D:\Microchip\xc8\v2.31\pic\sources\c90\common\doprnt.c: 565:   flag = 0;
  1869  0D42  01A4               	clrf	sprintf@flag^(0+128)
  1870  0D43  01A5               	clrf	(sprintf@flag+1)^(0+128)
  1871  0D44                     l3709:
  1872                           
  1873                           ;D:\Microchip\xc8\v2.31\pic\sources\c90\common\doprnt.c: 614:   if(isdigit((unsigned)*f)
      +                          ) {
  1874  0D44  1283               	bcf	3,5	;RP0=0, select bank0
  1875  0D45  1303               	bcf	3,6	;RP1=0, select bank0
  1876  0D46  085E               	movf	sprintf@f,w
  1877  0D47  0084               	movwf	4
  1878  0D48  160A  118A  200A  120A  158A  	fcall	stringdir
  1879  0D4D  160A  158A  25B4  120A  158A  	fcall	_isdigit
  1880  0D52  1C03               	btfss	3,0
  1881  0D53  2D55               	goto	u5291
  1882  0D54  2D56               	goto	u5290
  1883  0D55                     u5291:
  1884  0D55  2DA0               	goto	l3721
  1885  0D56                     u5290:
  1886  0D56                     l3711:
  1887                           
  1888                           ;D:\Microchip\xc8\v2.31\pic\sources\c90\common\doprnt.c: 615:    width = 0;
  1889  0D56  1683               	bsf	3,5	;RP0=1, select bank1
  1890  0D57  1303               	bcf	3,6	;RP1=0, select bank1
  1891  0D58  01A6               	clrf	sprintf@width^(0+128)
  1892  0D59  01A7               	clrf	(sprintf@width+1)^(0+128)
  1893  0D5A                     l3713:
  1894                           
  1895                           ;D:\Microchip\xc8\v2.31\pic\sources\c90\common\doprnt.c: 617:     width *= 10;
  1896  0D5A  300A               	movlw	10
  1897  0D5B  00F2               	movwf	___wmul@multiplier
  1898  0D5C  3000               	movlw	0
  1899  0D5D  00F3               	movwf	___wmul@multiplier+1
  1900  0D5E  1683               	bsf	3,5	;RP0=1, select bank1
  1901  0D5F  1303               	bcf	3,6	;RP1=0, select bank1
  1902  0D60  0827               	movf	(sprintf@width+1)^(0+128),w
  1903  0D61  00F5               	movwf	___wmul@multiplicand+1
  1904  0D62  0826               	movf	sprintf@width^(0+128),w
  1905  0D63  00F4               	movwf	___wmul@multiplicand
  1906  0D64  160A  158A  2656  120A  158A  	fcall	___wmul
  1907  0D69  0873               	movf	?___wmul+1,w
  1908  0D6A  1683               	bsf	3,5	;RP0=1, select bank1
  1909  0D6B  1303               	bcf	3,6	;RP1=0, select bank1
  1910  0D6C  00A7               	movwf	(sprintf@width+1)^(0+128)
  1911  0D6D  0872               	movf	?___wmul,w
  1912  0D6E  00A6               	movwf	sprintf@width^(0+128)
  1913  0D6F                     l3715:
  1914                           
  1915                           ;D:\Microchip\xc8\v2.31\pic\sources\c90\common\doprnt.c: 618:        width += *f++ - '0'
      +                          ;
  1916  0D6F  1283               	bcf	3,5	;RP0=0, select bank0
  1917  0D70  1303               	bcf	3,6	;RP1=0, select bank0
  1918  0D71  085E               	movf	sprintf@f,w
  1919  0D72  0084               	movwf	4
  1920  0D73  160A  118A  200A  120A  158A  	fcall	stringdir
  1921  0D78  3ED0               	addlw	208
  1922  0D79  00E7               	movwf	??_sprintf
  1923  0D7A  30FF               	movlw	255
  1924  0D7B  1803               	skipnc
  1925  0D7C  3000               	movlw	0
  1926  0D7D  00E8               	movwf	??_sprintf+1
  1927  0D7E  0867               	movf	??_sprintf,w
  1928  0D7F  1683               	bsf	3,5	;RP0=1, select bank1
  1929  0D80  1303               	bcf	3,6	;RP1=0, select bank1
  1930  0D81  07A6               	addwf	sprintf@width^(0+128),f
  1931  0D82  1803               	skipnc
  1932  0D83  0AA7               	incf	(sprintf@width+1)^(0+128),f
  1933  0D84  1283               	bcf	3,5	;RP0=0, select bank0
  1934  0D85  1303               	bcf	3,6	;RP1=0, select bank0
  1935  0D86  0868               	movf	??_sprintf+1,w
  1936  0D87  1683               	bsf	3,5	;RP0=1, select bank1
  1937  0D88  1303               	bcf	3,6	;RP1=0, select bank1
  1938  0D89  07A7               	addwf	(sprintf@width+1)^(0+128),f
  1939  0D8A                     l3717:
  1940  0D8A  3001               	movlw	1
  1941  0D8B  1283               	bcf	3,5	;RP0=0, select bank0
  1942  0D8C  1303               	bcf	3,6	;RP1=0, select bank0
  1943  0D8D  00E7               	movwf	??_sprintf
  1944  0D8E  0867               	movf	??_sprintf,w
  1945  0D8F  07DE               	addwf	sprintf@f,f
  1946  0D90                     l3719:
  1947                           
  1948                           ;D:\Microchip\xc8\v2.31\pic\sources\c90\common\doprnt.c: 619:    } while(isdigit((unsign
      +                          ed)*f));
  1949  0D90  085E               	movf	sprintf@f,w
  1950  0D91  0084               	movwf	4
  1951  0D92  160A  118A  200A  120A  158A  	fcall	stringdir
  1952  0D97  160A  158A  25B4  120A  158A  	fcall	_isdigit
  1953  0D9C  1803               	btfsc	3,0
  1954  0D9D  2D9F               	goto	u5301
  1955  0D9E  2DA0               	goto	u5300
  1956  0D9F                     u5301:
  1957  0D9F  2D5A               	goto	l3713
  1958  0DA0                     u5300:
  1959  0DA0                     l3721:
  1960                           
  1961                           ;D:\Microchip\xc8\v2.31\pic\sources\c90\common\doprnt.c: 628:   if(*f == '.') {
  1962  0DA0  1283               	bcf	3,5	;RP0=0, select bank0
  1963  0DA1  1303               	bcf	3,6	;RP1=0, select bank0
  1964  0DA2  085E               	movf	sprintf@f,w
  1965  0DA3  0084               	movwf	4
  1966  0DA4  160A  118A  200A  120A  158A  	fcall	stringdir
  1967  0DA9  3A2E               	xorlw	46
  1968  0DAA  1D03               	skipz
  1969  0DAB  2DAD               	goto	u5311
  1970  0DAC  2DAE               	goto	u5310
  1971  0DAD                     u5311:
  1972  0DAD  2E04               	goto	l3737
  1973  0DAE                     u5310:
  1974  0DAE                     l3723:
  1975                           
  1976                           ;D:\Microchip\xc8\v2.31\pic\sources\c90\common\doprnt.c: 629:    flag |= 0x4000;
  1977  0DAE  1683               	bsf	3,5	;RP0=1, select bank1
  1978  0DAF  1303               	bcf	3,6	;RP1=0, select bank1
  1979  0DB0  1725               	bsf	(sprintf@flag^(0+128)+1),6
  1980  0DB1                     l3725:
  1981                           
  1982                           ;D:\Microchip\xc8\v2.31\pic\sources\c90\common\doprnt.c: 630:    f++;
  1983  0DB1  3001               	movlw	1
  1984  0DB2  1283               	bcf	3,5	;RP0=0, select bank0
  1985  0DB3  1303               	bcf	3,6	;RP1=0, select bank0
  1986  0DB4  00E7               	movwf	??_sprintf
  1987  0DB5  0867               	movf	??_sprintf,w
  1988  0DB6  07DE               	addwf	sprintf@f,f
  1989  0DB7                     l3727:
  1990                           
  1991                           ;D:\Microchip\xc8\v2.31\pic\sources\c90\common\doprnt.c: 644:    {;D:\Microchip\xc8\v2.3
      +                          1\pic\sources\c90\common\doprnt.c: 645:     prec = 0;
  1992  0DB7  1683               	bsf	3,5	;RP0=1, select bank1
  1993  0DB8  1303               	bcf	3,6	;RP1=0, select bank1
  1994  0DB9  01B6               	clrf	sprintf@prec^(0+128)
  1995  0DBA  01B7               	clrf	(sprintf@prec+1)^(0+128)
  1996                           
  1997                           ;D:\Microchip\xc8\v2.31\pic\sources\c90\common\doprnt.c: 646:     while(isdigit((unsigne
      +                          d)*f)) {
  1998  0DBB  2DF2               	goto	l3735
  1999  0DBC                     l3729:
  2000                           
  2001                           ;D:\Microchip\xc8\v2.31\pic\sources\c90\common\doprnt.c: 647:      prec *= 10;
  2002  0DBC  300A               	movlw	10
  2003  0DBD  00F2               	movwf	___wmul@multiplier
  2004  0DBE  3000               	movlw	0
  2005  0DBF  00F3               	movwf	___wmul@multiplier+1
  2006  0DC0  1683               	bsf	3,5	;RP0=1, select bank1
  2007  0DC1  1303               	bcf	3,6	;RP1=0, select bank1
  2008  0DC2  0837               	movf	(sprintf@prec+1)^(0+128),w
  2009  0DC3  00F5               	movwf	___wmul@multiplicand+1
  2010  0DC4  0836               	movf	sprintf@prec^(0+128),w
  2011  0DC5  00F4               	movwf	___wmul@multiplicand
  2012  0DC6  160A  158A  2656  120A  158A  	fcall	___wmul
  2013  0DCB  0873               	movf	?___wmul+1,w
  2014  0DCC  1683               	bsf	3,5	;RP0=1, select bank1
  2015  0DCD  1303               	bcf	3,6	;RP1=0, select bank1
  2016  0DCE  00B7               	movwf	(sprintf@prec+1)^(0+128)
  2017  0DCF  0872               	movf	?___wmul,w
  2018  0DD0  00B6               	movwf	sprintf@prec^(0+128)
  2019  0DD1                     l3731:
  2020                           
  2021                           ;D:\Microchip\xc8\v2.31\pic\sources\c90\common\doprnt.c: 648:         prec += *f++ - '0'
      +                          ;
  2022  0DD1  1283               	bcf	3,5	;RP0=0, select bank0
  2023  0DD2  1303               	bcf	3,6	;RP1=0, select bank0
  2024  0DD3  085E               	movf	sprintf@f,w
  2025  0DD4  0084               	movwf	4
  2026  0DD5  160A  118A  200A  120A  158A  	fcall	stringdir
  2027  0DDA  3ED0               	addlw	208
  2028  0DDB  00E7               	movwf	??_sprintf
  2029  0DDC  30FF               	movlw	255
  2030  0DDD  1803               	skipnc
  2031  0DDE  3000               	movlw	0
  2032  0DDF  00E8               	movwf	??_sprintf+1
  2033  0DE0  0867               	movf	??_sprintf,w
  2034  0DE1  1683               	bsf	3,5	;RP0=1, select bank1
  2035  0DE2  1303               	bcf	3,6	;RP1=0, select bank1
  2036  0DE3  07B6               	addwf	sprintf@prec^(0+128),f
  2037  0DE4  1803               	skipnc
  2038  0DE5  0AB7               	incf	(sprintf@prec+1)^(0+128),f
  2039  0DE6  1283               	bcf	3,5	;RP0=0, select bank0
  2040  0DE7  1303               	bcf	3,6	;RP1=0, select bank0
  2041  0DE8  0868               	movf	??_sprintf+1,w
  2042  0DE9  1683               	bsf	3,5	;RP0=1, select bank1
  2043  0DEA  1303               	bcf	3,6	;RP1=0, select bank1
  2044  0DEB  07B7               	addwf	(sprintf@prec+1)^(0+128),f
  2045  0DEC                     l3733:
  2046  0DEC  3001               	movlw	1
  2047  0DED  1283               	bcf	3,5	;RP0=0, select bank0
  2048  0DEE  1303               	bcf	3,6	;RP1=0, select bank0
  2049  0DEF  00E7               	movwf	??_sprintf
  2050  0DF0  0867               	movf	??_sprintf,w
  2051  0DF1  07DE               	addwf	sprintf@f,f
  2052  0DF2                     l3735:
  2053                           
  2054                           ;D:\Microchip\xc8\v2.31\pic\sources\c90\common\doprnt.c: 646:     while(isdigit((unsigne
      +                          d)*f)) {
  2055  0DF2  1283               	bcf	3,5	;RP0=0, select bank0
  2056  0DF3  085E               	movf	sprintf@f,w
  2057  0DF4  0084               	movwf	4
  2058  0DF5  160A  118A  200A  120A  158A  	fcall	stringdir
  2059  0DFA  160A  158A  25B4  120A  158A  	fcall	_isdigit
  2060  0DFF  1803               	btfsc	3,0
  2061  0E00  2E02               	goto	u5321
  2062  0E01  2E03               	goto	u5320
  2063  0E02                     u5321:
  2064  0E02  2DBC               	goto	l3729
  2065  0E03                     u5320:
  2066  0E03  2E0E               	goto	l3743
  2067  0E04                     l3737:
  2068                           
  2069                           ;D:\Microchip\xc8\v2.31\pic\sources\c90\common\doprnt.c: 652:    prec = 0;
  2070  0E04  1683               	bsf	3,5	;RP0=1, select bank1
  2071  0E05  1303               	bcf	3,6	;RP1=0, select bank1
  2072  0E06  01B6               	clrf	sprintf@prec^(0+128)
  2073  0E07  01B7               	clrf	(sprintf@prec+1)^(0+128)
  2074  0E08                     l3739:
  2075                           
  2076                           ;D:\Microchip\xc8\v2.31\pic\sources\c90\common\doprnt.c: 654:    flag |= 0x1000;
  2077  0E08  1625               	bsf	(sprintf@flag^(0+128)+1),4
  2078  0E09  2E0E               	goto	l3743
  2079  0E0A                     l351:	
  2080                           ;D:\Microchip\xc8\v2.31\pic\sources\c90\common\doprnt.c: 688:   case 'f':
  2081                           
  2082                           
  2083                           ;D:\Microchip\xc8\v2.31\pic\sources\c90\common\doprnt.c: 689:    flag |= 0x400;
  2084  0E0A  1683               	bsf	3,5	;RP0=1, select bank1
  2085  0E0B  1303               	bcf	3,6	;RP1=0, select bank1
  2086  0E0C  1525               	bsf	(sprintf@flag^(0+128)+1),2
  2087                           
  2088                           ;D:\Microchip\xc8\v2.31\pic\sources\c90\common\doprnt.c: 690:    break;
  2089  0E0D  2E34               	goto	l3745
  2090  0E0E                     l3743:
  2091  0E0E  3001               	movlw	1
  2092  0E0F  1283               	bcf	3,5	;RP0=0, select bank0
  2093  0E10  1303               	bcf	3,6	;RP1=0, select bank0
  2094  0E11  07DE               	addwf	sprintf@f,f
  2095  0E12  30FF               	movlw	-1
  2096  0E13  075E               	addwf	sprintf@f,w
  2097  0E14  0084               	movwf	4
  2098  0E15  160A  118A  200A  120A  158A  	fcall	stringdir
  2099  0E1A  1683               	bsf	3,5	;RP0=1, select bank1
  2100  0E1B  1303               	bcf	3,6	;RP1=0, select bank1
  2101  0E1C  00B8               	movwf	sprintf@c^(0+128)
  2102  0E1D  1283               	bcf	3,5	;RP0=0, select bank0
  2103  0E1E  1303               	bcf	3,6	;RP1=0, select bank0
  2104  0E1F  00E7               	movwf	??_sprintf
  2105  0E20  01E8               	clrf	??_sprintf+1
  2106                           
  2107                           ; Switch on 2 bytes has been partitioned into a top level switch of size 1, and 1 sub-sw
      +                          itches
  2108                           ; Switch size 1, requested type "simple"
  2109                           ; Number of cases is 1, Range of values is 0 to 0
  2110                           ; switch strategies available:
  2111                           ; Name         Instructions Cycles
  2112                           ; simple_byte            4     3 (average)
  2113                           ; direct_byte           11     8 (fixed)
  2114                           ; jumptable            260     6 (fixed)
  2115                           ;	Chosen strategy is simple_byte
  2116  0E21  0868               	movf	??_sprintf+1,w
  2117  0E22  3A00               	xorlw	0	; case 0
  2118  0E23  1903               	skipnz
  2119  0E24  2E26               	goto	l4105
  2120  0E25  2D23               	goto	L1
  2121  0E26                     l4105:
  2122                           
  2123                           ; Switch size 1, requested type "simple"
  2124                           ; Number of cases is 4, Range of values is 0 to 105
  2125                           ; switch strategies available:
  2126                           ; Name         Instructions Cycles
  2127                           ; simple_byte           13     7 (average)
  2128                           ; jumptable            260     6 (fixed)
  2129                           ;	Chosen strategy is simple_byte
  2130  0E26  0867               	movf	??_sprintf,w
  2131  0E27  3A00               	xorlw	0	; case 0
  2132  0E28  1903               	skipnz
  2133  0E29  2FFD               	goto	L3
  2134  0E2A  3A64               	xorlw	100	; case 100
  2135  0E2B  1903               	skipnz
  2136  0E2C  2E34               	goto	l3745
  2137  0E2D  3A02               	xorlw	2	; case 102
  2138  0E2E  1903               	skipnz
  2139  0E2F  2E0A               	goto	l351
  2140  0E30  3A0F               	xorlw	15	; case 105
  2141  0E31  1903               	skipnz
  2142  0E32  2E34               	goto	l3745
  2143  0E33  2D23               	goto	L1
  2144  0E34                     l3745:
  2145                           
  2146                           ;D:\Microchip\xc8\v2.31\pic\sources\c90\common\doprnt.c: 851:   if(flag & (0x700)) {
  2147  0E34  3000               	movlw	0
  2148  0E35  1683               	bsf	3,5	;RP0=1, select bank1
  2149  0E36  1303               	bcf	3,6	;RP1=0, select bank1
  2150  0E37  0524               	andwf	sprintf@flag^(0+128),w
  2151  0E38  1283               	bcf	3,5	;RP0=0, select bank0
  2152  0E39  1303               	bcf	3,6	;RP1=0, select bank0
  2153  0E3A  00E7               	movwf	??_sprintf
  2154  0E3B  3007               	movlw	7
  2155  0E3C  1683               	bsf	3,5	;RP0=1, select bank1
  2156  0E3D  1303               	bcf	3,6	;RP1=0, select bank1
  2157  0E3E  0525               	andwf	(sprintf@flag+1)^(0+128),w
  2158  0E3F  1283               	bcf	3,5	;RP0=0, select bank0
  2159  0E40  1303               	bcf	3,6	;RP1=0, select bank0
  2160  0E41  00E8               	movwf	??_sprintf+1
  2161  0E42  0867               	movf	??_sprintf,w
  2162  0E43  0468               	iorwf	??_sprintf+1,w
  2163  0E44  1903               	btfsc	3,2
  2164  0E45  2E47               	goto	u5331
  2165  0E46  2E4A               	goto	u5330
  2166  0E47                     u5331:
  2167  0E47  120A  118A  2CAE   	goto	l3901
  2168  0E4A                     u5330:
  2169  0E4A                     l3747:
  2170                           
  2171                           ;D:\Microchip\xc8\v2.31\pic\sources\c90\common\doprnt.c: 853:    if(flag & 0x1000)
  2172  0E4A  1683               	bsf	3,5	;RP0=1, select bank1
  2173  0E4B  1303               	bcf	3,6	;RP1=0, select bank1
  2174  0E4C  1E25               	btfss	(sprintf@flag+1)^(0+128),4
  2175  0E4D  2E4F               	goto	u5341
  2176  0E4E  2E50               	goto	u5340
  2177  0E4F                     u5341:
  2178  0E4F  2E54               	goto	l3751
  2179  0E50                     u5340:
  2180  0E50                     l3749:
  2181                           
  2182                           ;D:\Microchip\xc8\v2.31\pic\sources\c90\common\doprnt.c: 855:     prec = 6;
  2183  0E50  3006               	movlw	6
  2184  0E51  00B6               	movwf	sprintf@prec^(0+128)
  2185  0E52  3000               	movlw	0
  2186  0E53  00B7               	movwf	(sprintf@prec^(0+128)+1)
  2187  0E54                     l3751:
  2188                           
  2189                           ;D:\Microchip\xc8\v2.31\pic\sources\c90\common\doprnt.c: 856:    fval = (*(double *)__va
      +                          _arg((*(double **)ap), (double)0));
  2190  0E54  0823               	movf	sprintf@ap^(0+128),w
  2191  0E55  0084               	movwf	4
  2192  0E56  1383               	bcf	3,7	;select IRP bank0
  2193  0E57  0800               	movf	0,w
  2194  0E58  00B2               	movwf	sprintf@fval^(0+128)
  2195  0E59  0A84               	incf	4,f
  2196  0E5A  0800               	movf	0,w
  2197  0E5B  00B3               	movwf	(sprintf@fval+1)^(0+128)
  2198  0E5C  0A84               	incf	4,f
  2199  0E5D  0800               	movf	0,w
  2200  0E5E  00B4               	movwf	(sprintf@fval+2)^(0+128)
  2201  0E5F                     l3753:
  2202  0E5F  3003               	movlw	3
  2203  0E60  1283               	bcf	3,5	;RP0=0, select bank0
  2204  0E61  1303               	bcf	3,6	;RP1=0, select bank0
  2205  0E62  00E7               	movwf	??_sprintf
  2206  0E63  0867               	movf	??_sprintf,w
  2207  0E64  1683               	bsf	3,5	;RP0=1, select bank1
  2208  0E65  1303               	bcf	3,6	;RP1=0, select bank1
  2209  0E66  07A3               	addwf	sprintf@ap^(0+128),f
  2210  0E67                     l3755:
  2211                           
  2212                           ;D:\Microchip\xc8\v2.31\pic\sources\c90\common\doprnt.c: 857:    if(fval < 0.0) {
  2213  0E67  0832               	movf	sprintf@fval^(0+128),w
  2214  0E68  00F2               	movwf	___ftge@ff1
  2215  0E69  0833               	movf	(sprintf@fval+1)^(0+128),w
  2216  0E6A  00F3               	movwf	___ftge@ff1+1
  2217  0E6B  0834               	movf	(sprintf@fval+2)^(0+128),w
  2218  0E6C  00F4               	movwf	___ftge@ff1+2
  2219  0E6D  3000               	movlw	0
  2220  0E6E  00F5               	movwf	___ftge@ff2
  2221  0E6F  3000               	movlw	0
  2222  0E70  00F6               	movwf	___ftge@ff2+1
  2223  0E71  3000               	movlw	0
  2224  0E72  00F7               	movwf	___ftge@ff2+2
  2225  0E73  160A  158A  2702  120A  158A  	fcall	___ftge
  2226  0E78  1803               	btfsc	3,0
  2227  0E79  2E7B               	goto	u5351
  2228  0E7A  2E7C               	goto	u5350
  2229  0E7B                     u5351:
  2230  0E7B  2E95               	goto	l3761
  2231  0E7C                     u5350:
  2232  0E7C                     l3757:
  2233                           
  2234                           ;D:\Microchip\xc8\v2.31\pic\sources\c90\common\doprnt.c: 858:     fval = -fval;
  2235  0E7C  1683               	bsf	3,5	;RP0=1, select bank1
  2236  0E7D  1303               	bcf	3,6	;RP1=0, select bank1
  2237  0E7E  0832               	movf	sprintf@fval^(0+128),w
  2238  0E7F  00F2               	movwf	___ftneg@f1
  2239  0E80  0833               	movf	(sprintf@fval+1)^(0+128),w
  2240  0E81  00F3               	movwf	___ftneg@f1+1
  2241  0E82  0834               	movf	(sprintf@fval+2)^(0+128),w
  2242  0E83  00F4               	movwf	___ftneg@f1+2
  2243  0E84  160A  158A  2584  120A  158A  	fcall	___ftneg
  2244  0E89  0872               	movf	?___ftneg,w
  2245  0E8A  1683               	bsf	3,5	;RP0=1, select bank1
  2246  0E8B  1303               	bcf	3,6	;RP1=0, select bank1
  2247  0E8C  00B2               	movwf	sprintf@fval^(0+128)
  2248  0E8D  0873               	movf	?___ftneg+1,w
  2249  0E8E  00B3               	movwf	(sprintf@fval+1)^(0+128)
  2250  0E8F  0874               	movf	?___ftneg+2,w
  2251  0E90  00B4               	movwf	(sprintf@fval+2)^(0+128)
  2252  0E91                     l3759:
  2253                           
  2254                           ;D:\Microchip\xc8\v2.31\pic\sources\c90\common\doprnt.c: 859:     flag |= 0x03;
  2255  0E91  3003               	movlw	3
  2256  0E92  04A4               	iorwf	sprintf@flag^(0+128),f
  2257  0E93  3000               	movlw	0
  2258  0E94  04A5               	iorwf	(sprintf@flag+1)^(0+128),f
  2259  0E95                     l3761:
  2260                           
  2261                           ;D:\Microchip\xc8\v2.31\pic\sources\c90\common\doprnt.c: 861:    eexp = 0;
  2262  0E95  1683               	bsf	3,5	;RP0=1, select bank1
  2263  0E96  1303               	bcf	3,6	;RP1=0, select bank1
  2264  0E97  01B0               	clrf	sprintf@eexp^(0+128)
  2265  0E98  01B1               	clrf	(sprintf@eexp+1)^(0+128)
  2266  0E99                     l3763:
  2267                           
  2268                           ;D:\Microchip\xc8\v2.31\pic\sources\c90\common\doprnt.c: 862:    if( fval!=0) {
  2269  0E99  0834               	movf	(sprintf@fval+2)^(0+128),w
  2270  0E9A  0433               	iorwf	(sprintf@fval+1)^(0+128),w
  2271  0E9B  0432               	iorwf	sprintf@fval^(0+128),w
  2272  0E9C  1903               	skipnz
  2273  0E9D  2E9F               	goto	u5361
  2274  0E9E  2EA0               	goto	u5360
  2275  0E9F                     u5361:
  2276  0E9F  2FA2               	goto	l3789
  2277  0EA0                     u5360:
  2278  0EA0                     l3765:
  2279                           
  2280                           ;D:\Microchip\xc8\v2.31\pic\sources\c90\common\doprnt.c: 863:     (void)(*(&eexp) = ((*(
      +                          unsigned long *)&fval >> 15) & 255) - 126);
  2281  0EA0  30B2               	movlw	low (sprintf@fval| 0)
  2282  0EA1  0084               	movwf	4
  2283  0EA2  1383               	bcf	3,7	;select IRP bank1
  2284  0EA3  0800               	movf	0,w
  2285  0EA4  1283               	bcf	3,5	;RP0=0, select bank0
  2286  0EA5  1303               	bcf	3,6	;RP1=0, select bank0
  2287  0EA6  00E7               	movwf	??_sprintf
  2288  0EA7  0A84               	incf	4,f
  2289  0EA8  0800               	movf	0,w
  2290  0EA9  00E8               	movwf	??_sprintf+1
  2291  0EAA  0A84               	incf	4,f
  2292  0EAB  0800               	movf	0,w
  2293  0EAC  00E9               	movwf	??_sprintf+2
  2294  0EAD  0A84               	incf	4,f
  2295  0EAE  0800               	movf	0,w
  2296  0EAF  00EA               	movwf	??_sprintf+3
  2297  0EB0  300F               	movlw	15
  2298  0EB1                     u5375:
  2299  0EB1  1003               	clrc
  2300  0EB2  0CEA               	rrf	??_sprintf+3,f
  2301  0EB3  0CE9               	rrf	??_sprintf+2,f
  2302  0EB4  0CE8               	rrf	??_sprintf+1,f
  2303  0EB5  0CE7               	rrf	??_sprintf,f
  2304  0EB6                     u5370:
  2305  0EB6  3EFF               	addlw	-1
  2306  0EB7  1D03               	skipz
  2307  0EB8  2EB1               	goto	u5375
  2308  0EB9  30FF               	movlw	255
  2309  0EBA  0567               	andwf	??_sprintf,w
  2310  0EBB  00EB               	movwf	??_sprintf+4
  2311  0EBC  3000               	movlw	0
  2312  0EBD  0568               	andwf	??_sprintf+1,w
  2313  0EBE  00EC               	movwf	??_sprintf+5
  2314  0EBF  086B               	movf	??_sprintf+4,w
  2315  0EC0  3E82               	addlw	130
  2316  0EC1  1683               	bsf	3,5	;RP0=1, select bank1
  2317  0EC2  1303               	bcf	3,6	;RP1=0, select bank1
  2318  0EC3  00B0               	movwf	sprintf@eexp^(0+128)
  2319  0EC4  1283               	bcf	3,5	;RP0=0, select bank0
  2320  0EC5  1303               	bcf	3,6	;RP1=0, select bank0
  2321  0EC6  086C               	movf	??_sprintf+5,w
  2322  0EC7  1803               	skipnc
  2323  0EC8  3E01               	addlw	1
  2324  0EC9  3EFF               	addlw	255
  2325  0ECA  1683               	bsf	3,5	;RP0=1, select bank1
  2326  0ECB  1303               	bcf	3,6	;RP1=0, select bank1
  2327  0ECC  00B1               	movwf	(sprintf@eexp+1)^(0+128)
  2328  0ECD                     l3767:
  2329                           
  2330                           ;D:\Microchip\xc8\v2.31\pic\sources\c90\common\doprnt.c: 864:     eexp--;
  2331  0ECD  30FF               	movlw	255
  2332  0ECE  07B0               	addwf	sprintf@eexp^(0+128),f
  2333  0ECF  1803               	skipnc
  2334  0ED0  0AB1               	incf	(sprintf@eexp+1)^(0+128),f
  2335  0ED1  30FF               	movlw	255
  2336  0ED2  07B1               	addwf	(sprintf@eexp+1)^(0+128),f
  2337  0ED3                     l3769:
  2338                           
  2339                           ;D:\Microchip\xc8\v2.31\pic\sources\c90\common\doprnt.c: 865:     eexp *= 3;
  2340  0ED3  3003               	movlw	3
  2341  0ED4  00F2               	movwf	___wmul@multiplier
  2342  0ED5  3000               	movlw	0
  2343  0ED6  00F3               	movwf	___wmul@multiplier+1
  2344  0ED7  0831               	movf	(sprintf@eexp+1)^(0+128),w
  2345  0ED8  00F5               	movwf	___wmul@multiplicand+1
  2346  0ED9  0830               	movf	sprintf@eexp^(0+128),w
  2347  0EDA  00F4               	movwf	___wmul@multiplicand
  2348  0EDB  160A  158A  2656  120A  158A  	fcall	___wmul
  2349  0EE0  0873               	movf	?___wmul+1,w
  2350  0EE1  1683               	bsf	3,5	;RP0=1, select bank1
  2351  0EE2  1303               	bcf	3,6	;RP1=0, select bank1
  2352  0EE3  00B1               	movwf	(sprintf@eexp+1)^(0+128)
  2353  0EE4  0872               	movf	?___wmul,w
  2354  0EE5  00B0               	movwf	sprintf@eexp^(0+128)
  2355  0EE6                     l3771:
  2356                           
  2357                           ;D:\Microchip\xc8\v2.31\pic\sources\c90\common\doprnt.c: 866:     eexp /= 10;
  2358  0EE6  300A               	movlw	10
  2359  0EE7  1283               	bcf	3,5	;RP0=0, select bank0
  2360  0EE8  1303               	bcf	3,6	;RP1=0, select bank0
  2361  0EE9  00A0               	movwf	___awdiv@divisor
  2362  0EEA  3000               	movlw	0
  2363  0EEB  00A1               	movwf	___awdiv@divisor+1
  2364  0EEC  1683               	bsf	3,5	;RP0=1, select bank1
  2365  0EED  1303               	bcf	3,6	;RP1=0, select bank1
  2366  0EEE  0831               	movf	(sprintf@eexp+1)^(0+128),w
  2367  0EEF  1283               	bcf	3,5	;RP0=0, select bank0
  2368  0EF0  1303               	bcf	3,6	;RP1=0, select bank0
  2369  0EF1  00A3               	movwf	___awdiv@dividend+1
  2370  0EF2  1683               	bsf	3,5	;RP0=1, select bank1
  2371  0EF3  1303               	bcf	3,6	;RP1=0, select bank1
  2372  0EF4  0830               	movf	sprintf@eexp^(0+128),w
  2373  0EF5  1283               	bcf	3,5	;RP0=0, select bank0
  2374  0EF6  1303               	bcf	3,6	;RP1=0, select bank0
  2375  0EF7  00A2               	movwf	___awdiv@dividend
  2376  0EF8  160A  118A  228B  120A  158A  	fcall	___awdiv
  2377  0EFD  1283               	bcf	3,5	;RP0=0, select bank0
  2378  0EFE  1303               	bcf	3,6	;RP1=0, select bank0
  2379  0EFF  0821               	movf	?___awdiv+1,w
  2380  0F00  1683               	bsf	3,5	;RP0=1, select bank1
  2381  0F01  1303               	bcf	3,6	;RP1=0, select bank1
  2382  0F02  00B1               	movwf	(sprintf@eexp+1)^(0+128)
  2383  0F03  1283               	bcf	3,5	;RP0=0, select bank0
  2384  0F04  1303               	bcf	3,6	;RP1=0, select bank0
  2385  0F05  0820               	movf	?___awdiv,w
  2386  0F06  1683               	bsf	3,5	;RP0=1, select bank1
  2387  0F07  1303               	bcf	3,6	;RP1=0, select bank1
  2388  0F08  00B0               	movwf	sprintf@eexp^(0+128)
  2389  0F09                     l3773:
  2390                           
  2391                           ;D:\Microchip\xc8\v2.31\pic\sources\c90\common\doprnt.c: 867:     if(eexp < 0)
  2392  0F09  1FB1               	btfss	(sprintf@eexp+1)^(0+128),7
  2393  0F0A  2F0C               	goto	u5381
  2394  0F0B  2F0D               	goto	u5380
  2395  0F0C                     u5381:
  2396  0F0C  2F13               	goto	l3777
  2397  0F0D                     u5380:
  2398  0F0D                     l3775:
  2399                           
  2400                           ;D:\Microchip\xc8\v2.31\pic\sources\c90\common\doprnt.c: 868:      eexp--;
  2401  0F0D  30FF               	movlw	255
  2402  0F0E  07B0               	addwf	sprintf@eexp^(0+128),f
  2403  0F0F  1803               	skipnc
  2404  0F10  0AB1               	incf	(sprintf@eexp+1)^(0+128),f
  2405  0F11  30FF               	movlw	255
  2406  0F12  07B1               	addwf	(sprintf@eexp+1)^(0+128),f
  2407  0F13                     l3777:
  2408                           
  2409                           ;D:\Microchip\xc8\v2.31\pic\sources\c90\common\doprnt.c: 872:     tmpval.integ = scale(-
      +                          eexp);
  2410  0F13  0330               	decf	sprintf@eexp^(0+128),w
  2411  0F14  3AFF               	xorlw	255
  2412  0F15  120A  158A  225D  120A  158A  	fcall	_scale
  2413  0F1A  1283               	bcf	3,5	;RP0=0, select bank0
  2414  0F1B  1303               	bcf	3,6	;RP1=0, select bank0
  2415  0F1C  083B               	movf	?_scale,w
  2416  0F1D  1683               	bsf	3,5	;RP0=1, select bank1
  2417  0F1E  1303               	bcf	3,6	;RP1=0, select bank1
  2418  0F1F  00A8               	movwf	sprintf@tmpval^(0+128)
  2419  0F20  1283               	bcf	3,5	;RP0=0, select bank0
  2420  0F21  1303               	bcf	3,6	;RP1=0, select bank0
  2421  0F22  083C               	movf	?_scale+1,w
  2422  0F23  1683               	bsf	3,5	;RP0=1, select bank1
  2423  0F24  1303               	bcf	3,6	;RP1=0, select bank1
  2424  0F25  00A9               	movwf	(sprintf@tmpval+1)^(0+128)
  2425  0F26  1283               	bcf	3,5	;RP0=0, select bank0
  2426  0F27  1303               	bcf	3,6	;RP1=0, select bank0
  2427  0F28  083D               	movf	?_scale+2,w
  2428  0F29  1683               	bsf	3,5	;RP0=1, select bank1
  2429  0F2A  1303               	bcf	3,6	;RP1=0, select bank1
  2430  0F2B  00AA               	movwf	(sprintf@tmpval+2)^(0+128)
  2431  0F2C                     l3779:
  2432                           
  2433                           ;D:\Microchip\xc8\v2.31\pic\sources\c90\common\doprnt.c: 873:     tmpval.integ *= fval;
  2434  0F2C  0832               	movf	sprintf@fval^(0+128),w
  2435  0F2D  1283               	bcf	3,5	;RP0=0, select bank0
  2436  0F2E  1303               	bcf	3,6	;RP1=0, select bank0
  2437  0F2F  00AB               	movwf	___ftmul@f1
  2438  0F30  1683               	bsf	3,5	;RP0=1, select bank1
  2439  0F31  1303               	bcf	3,6	;RP1=0, select bank1
  2440  0F32  0833               	movf	(sprintf@fval+1)^(0+128),w
  2441  0F33  1283               	bcf	3,5	;RP0=0, select bank0
  2442  0F34  1303               	bcf	3,6	;RP1=0, select bank0
  2443  0F35  00AC               	movwf	___ftmul@f1+1
  2444  0F36  1683               	bsf	3,5	;RP0=1, select bank1
  2445  0F37  1303               	bcf	3,6	;RP1=0, select bank1
  2446  0F38  0834               	movf	(sprintf@fval+2)^(0+128),w
  2447  0F39  1283               	bcf	3,5	;RP0=0, select bank0
  2448  0F3A  1303               	bcf	3,6	;RP1=0, select bank0
  2449  0F3B  00AD               	movwf	___ftmul@f1+2
  2450  0F3C  1683               	bsf	3,5	;RP0=1, select bank1
  2451  0F3D  1303               	bcf	3,6	;RP1=0, select bank1
  2452  0F3E  0828               	movf	sprintf@tmpval^(0+128),w
  2453  0F3F  1283               	bcf	3,5	;RP0=0, select bank0
  2454  0F40  1303               	bcf	3,6	;RP1=0, select bank0
  2455  0F41  00AE               	movwf	___ftmul@f2
  2456  0F42  1683               	bsf	3,5	;RP0=1, select bank1
  2457  0F43  1303               	bcf	3,6	;RP1=0, select bank1
  2458  0F44  0829               	movf	(sprintf@tmpval+1)^(0+128),w
  2459  0F45  1283               	bcf	3,5	;RP0=0, select bank0
  2460  0F46  1303               	bcf	3,6	;RP1=0, select bank0
  2461  0F47  00AF               	movwf	___ftmul@f2+1
  2462  0F48  1683               	bsf	3,5	;RP0=1, select bank1
  2463  0F49  1303               	bcf	3,6	;RP1=0, select bank1
  2464  0F4A  082A               	movf	(sprintf@tmpval+2)^(0+128),w
  2465  0F4B  1283               	bcf	3,5	;RP0=0, select bank0
  2466  0F4C  1303               	bcf	3,6	;RP1=0, select bank0
  2467  0F4D  00B0               	movwf	___ftmul@f2+2
  2468  0F4E  160A  118A  24B9  120A  158A  	fcall	___ftmul
  2469  0F53  1283               	bcf	3,5	;RP0=0, select bank0
  2470  0F54  1303               	bcf	3,6	;RP1=0, select bank0
  2471  0F55  082B               	movf	?___ftmul,w
  2472  0F56  1683               	bsf	3,5	;RP0=1, select bank1
  2473  0F57  1303               	bcf	3,6	;RP1=0, select bank1
  2474  0F58  00A8               	movwf	sprintf@tmpval^(0+128)
  2475  0F59  1283               	bcf	3,5	;RP0=0, select bank0
  2476  0F5A  1303               	bcf	3,6	;RP1=0, select bank0
  2477  0F5B  082C               	movf	?___ftmul+1,w
  2478  0F5C  1683               	bsf	3,5	;RP0=1, select bank1
  2479  0F5D  1303               	bcf	3,6	;RP1=0, select bank1
  2480  0F5E  00A9               	movwf	(sprintf@tmpval+1)^(0+128)
  2481  0F5F  1283               	bcf	3,5	;RP0=0, select bank0
  2482  0F60  1303               	bcf	3,6	;RP1=0, select bank0
  2483  0F61  082D               	movf	?___ftmul+2,w
  2484  0F62  1683               	bsf	3,5	;RP0=1, select bank1
  2485  0F63  1303               	bcf	3,6	;RP1=0, select bank1
  2486  0F64  00AA               	movwf	(sprintf@tmpval+2)^(0+128)
  2487  0F65                     l3781:
  2488                           
  2489                           ;D:\Microchip\xc8\v2.31\pic\sources\c90\common\doprnt.c: 874:     if(tmpval.integ < 1.0)
  2490  0F65  0828               	movf	sprintf@tmpval^(0+128),w
  2491  0F66  00F2               	movwf	___ftge@ff1
  2492  0F67  0829               	movf	(sprintf@tmpval+1)^(0+128),w
  2493  0F68  00F3               	movwf	___ftge@ff1+1
  2494  0F69  082A               	movf	(sprintf@tmpval+2)^(0+128),w
  2495  0F6A  00F4               	movwf	___ftge@ff1+2
  2496  0F6B  3000               	movlw	0
  2497  0F6C  00F5               	movwf	___ftge@ff2
  2498  0F6D  3080               	movlw	128
  2499  0F6E  00F6               	movwf	___ftge@ff2+1
  2500  0F6F  303F               	movlw	63
  2501  0F70  00F7               	movwf	___ftge@ff2+2
  2502  0F71  160A  158A  2702  120A  158A  	fcall	___ftge
  2503  0F76  1803               	btfsc	3,0
  2504  0F77  2F79               	goto	u5391
  2505  0F78  2F7A               	goto	u5390
  2506  0F79                     u5391:
  2507  0F79  2F83               	goto	l3785
  2508  0F7A                     u5390:
  2509  0F7A                     l3783:
  2510                           
  2511                           ;D:\Microchip\xc8\v2.31\pic\sources\c90\common\doprnt.c: 875:      eexp--;
  2512  0F7A  30FF               	movlw	255
  2513  0F7B  1683               	bsf	3,5	;RP0=1, select bank1
  2514  0F7C  1303               	bcf	3,6	;RP1=0, select bank1
  2515  0F7D  07B0               	addwf	sprintf@eexp^(0+128),f
  2516  0F7E  1803               	skipnc
  2517  0F7F  0AB1               	incf	(sprintf@eexp+1)^(0+128),f
  2518  0F80  30FF               	movlw	255
  2519  0F81  07B1               	addwf	(sprintf@eexp+1)^(0+128),f
  2520  0F82  2FA2               	goto	l3789
  2521  0F83                     l3785:
  2522  0F83  1683               	bsf	3,5	;RP0=1, select bank1
  2523  0F84  1303               	bcf	3,6	;RP1=0, select bank1
  2524  0F85  0828               	movf	sprintf@tmpval^(0+128),w
  2525  0F86  00F2               	movwf	___ftge@ff1
  2526  0F87  0829               	movf	(sprintf@tmpval+1)^(0+128),w
  2527  0F88  00F3               	movwf	___ftge@ff1+1
  2528  0F89  082A               	movf	(sprintf@tmpval+2)^(0+128),w
  2529  0F8A  00F4               	movwf	___ftge@ff1+2
  2530  0F8B  3000               	movlw	0
  2531  0F8C  00F5               	movwf	___ftge@ff2
  2532  0F8D  3020               	movlw	32
  2533  0F8E  00F6               	movwf	___ftge@ff2+1
  2534  0F8F  3041               	movlw	65
  2535  0F90  00F7               	movwf	___ftge@ff2+2
  2536  0F91  160A  158A  2702  120A  158A  	fcall	___ftge
  2537  0F96  1C03               	btfss	3,0
  2538  0F97  2F99               	goto	u5401
  2539  0F98  2F9A               	goto	u5400
  2540  0F99                     u5401:
  2541  0F99  2FA2               	goto	l3789
  2542  0F9A                     u5400:
  2543  0F9A                     l3787:
  2544                           
  2545                           ;D:\Microchip\xc8\v2.31\pic\sources\c90\common\doprnt.c: 877:      eexp++;
  2546  0F9A  3001               	movlw	1
  2547  0F9B  1683               	bsf	3,5	;RP0=1, select bank1
  2548  0F9C  1303               	bcf	3,6	;RP1=0, select bank1
  2549  0F9D  07B0               	addwf	sprintf@eexp^(0+128),f
  2550  0F9E  1803               	skipnc
  2551  0F9F  0AB1               	incf	(sprintf@eexp+1)^(0+128),f
  2552  0FA0  3000               	movlw	0
  2553  0FA1  07B1               	addwf	(sprintf@eexp+1)^(0+128),f
  2554  0FA2                     l3789:
  2555                           
  2556                           ;D:\Microchip\xc8\v2.31\pic\sources\c90\common\doprnt.c: 1138:      if(prec <= 12)
  2557  0FA2  1683               	bsf	3,5	;RP0=1, select bank1
  2558  0FA3  1303               	bcf	3,6	;RP1=0, select bank1
  2559  0FA4  0837               	movf	(sprintf@prec+1)^(0+128),w
  2560  0FA5  3A80               	xorlw	128
  2561  0FA6  00FF               	movwf	btemp+1
  2562  0FA7  3080               	movlw	128
  2563  0FA8  027F               	subwf	btemp+1,w
  2564  0FA9  1D03               	skipz
  2565  0FAA  2FAD               	goto	u5415
  2566  0FAB  300D               	movlw	13
  2567  0FAC  0236               	subwf	sprintf@prec^(0+128),w
  2568  0FAD                     u5415:
  2569  0FAD  1803               	skipnc
  2570  0FAE  2FB0               	goto	u5411
  2571  0FAF  2FB1               	goto	u5410
  2572  0FB0                     u5411:
  2573  0FB0  2FEA               	goto	l3793
  2574  0FB1                     u5410:
  2575  0FB1                     l3791:
  2576                           
  2577                           ;D:\Microchip\xc8\v2.31\pic\sources\c90\common\doprnt.c: 1139:       fval += fround((uns
      +                          igned int)prec);
  2578  0FB1  1683               	bsf	3,5	;RP0=1, select bank1
  2579  0FB2  1303               	bcf	3,6	;RP1=0, select bank1
  2580  0FB3  0836               	movf	sprintf@prec^(0+128),w
  2581  0FB4  120A  158A  20B4  120A  158A  	fcall	_fround
  2582  0FB9  1283               	bcf	3,5	;RP0=0, select bank0
  2583  0FBA  1303               	bcf	3,6	;RP1=0, select bank0
  2584  0FBB  083B               	movf	?_fround,w
  2585  0FBC  00CB               	movwf	___ftadd@f1
  2586  0FBD  083C               	movf	?_fround+1,w
  2587  0FBE  00CC               	movwf	___ftadd@f1+1
  2588  0FBF  083D               	movf	?_fround+2,w
  2589  0FC0  00CD               	movwf	___ftadd@f1+2
  2590  0FC1  1683               	bsf	3,5	;RP0=1, select bank1
  2591  0FC2  1303               	bcf	3,6	;RP1=0, select bank1
  2592  0FC3  0832               	movf	sprintf@fval^(0+128),w
  2593  0FC4  1283               	bcf	3,5	;RP0=0, select bank0
  2594  0FC5  1303               	bcf	3,6	;RP1=0, select bank0
  2595  0FC6  00CE               	movwf	___ftadd@f2
  2596  0FC7  1683               	bsf	3,5	;RP0=1, select bank1
  2597  0FC8  1303               	bcf	3,6	;RP1=0, select bank1
  2598  0FC9  0833               	movf	(sprintf@fval+1)^(0+128),w
  2599  0FCA  1283               	bcf	3,5	;RP0=0, select bank0
  2600  0FCB  1303               	bcf	3,6	;RP1=0, select bank0
  2601  0FCC  00CF               	movwf	___ftadd@f2+1
  2602  0FCD  1683               	bsf	3,5	;RP0=1, select bank1
  2603  0FCE  1303               	bcf	3,6	;RP1=0, select bank1
  2604  0FCF  0834               	movf	(sprintf@fval+2)^(0+128),w
  2605  0FD0  1283               	bcf	3,5	;RP0=0, select bank0
  2606  0FD1  1303               	bcf	3,6	;RP1=0, select bank0
  2607  0FD2  00D0               	movwf	___ftadd@f2+2
  2608  0FD3  160A  118A  26CA  120A  158A  	fcall	___ftadd
  2609  0FD8  1283               	bcf	3,5	;RP0=0, select bank0
  2610  0FD9  1303               	bcf	3,6	;RP1=0, select bank0
  2611  0FDA  084B               	movf	?___ftadd,w
  2612  0FDB  1683               	bsf	3,5	;RP0=1, select bank1
  2613  0FDC  1303               	bcf	3,6	;RP1=0, select bank1
  2614  0FDD  00B2               	movwf	sprintf@fval^(0+128)
  2615  0FDE  1283               	bcf	3,5	;RP0=0, select bank0
  2616  0FDF  1303               	bcf	3,6	;RP1=0, select bank0
  2617  0FE0  084C               	movf	?___ftadd+1,w
  2618  0FE1  1683               	bsf	3,5	;RP0=1, select bank1
  2619  0FE2  1303               	bcf	3,6	;RP1=0, select bank1
  2620  0FE3  00B3               	movwf	(sprintf@fval+1)^(0+128)
  2621  0FE4  1283               	bcf	3,5	;RP0=0, select bank0
  2622  0FE5  1303               	bcf	3,6	;RP1=0, select bank0
  2623  0FE6  084D               	movf	?___ftadd+2,w
  2624  0FE7  1683               	bsf	3,5	;RP0=1, select bank1
  2625  0FE8  1303               	bcf	3,6	;RP1=0, select bank1
  2626  0FE9  00B4               	movwf	(sprintf@fval+2)^(0+128)
  2627  0FEA                     l3793:
  2628                           
  2629                           ;D:\Microchip\xc8\v2.31\pic\sources\c90\common\doprnt.c: 1142:     if((eexp > 9)||(fval 
      +                          != 0 && (unsigned long)fval == 0 && eexp > 1)) {
  2630  0FEA  1683               	bsf	3,5	;RP0=1, select bank1
  2631  0FEB  1303               	bcf	3,6	;RP1=0, select bank1
  2632  0FEC  0831               	movf	(sprintf@eexp+1)^(0+128),w
  2633  0FED  3A80               	xorlw	128
  2634  0FEE  00FF               	movwf	btemp+1
  2635  0FEF  3080               	movlw	128
  2636  0FF0  027F               	subwf	btemp+1,w
  2637  0FF1  1D03               	skipz
  2638  0FF2  2FF5               	goto	u5425
  2639  0FF3  300A               	movlw	10
  2640  0FF4  0230               	subwf	sprintf@eexp^(0+128),w
  2641  0FF5                     u5425:
  2642  0FF5  1803               	skipnc
  2643  0FF6  2FFA               	goto	u5421
  2644  0FF7  120A  118A  2821   	goto	u5420
  2645  0FFA                     u5421:
  2646  0FFA  120A  118A  2858   	goto	l3801
  2647  0FFD                     L3:
  2648  0FFD                     L2:
  2649  0FFD  120A  118A  2ECE   	ljmp	l3981
  2650                           
  2651                           	psect	text2
  2652  0A5D                     __ptext2:	
  2653 ;; *************** function _scale *****************
  2654 ;; Defined at:
  2655 ;;		line 433 in file "D:\Microchip\xc8\v2.31\pic\sources\c90\common\doprnt.c"
  2656 ;; Parameters:    Size  Location     Type
  2657 ;;  scl             1    wreg     char 
  2658 ;; Auto vars:     Size  Location     Type
  2659 ;;  scl             1   35[BANK0 ] char 
  2660 ;; Return value:  Size  Location     Type
  2661 ;;                  3   27[BANK0 ] char 
  2662 ;; Registers used:
  2663 ;;		wreg, fsr0l, fsr0h, status,2, status,0, pclath, cstack
  2664 ;; Tracked objects:
  2665 ;;		On entry : 0/0
  2666 ;;		On exit  : 0/0
  2667 ;;		Unchanged: 0/0
  2668 ;; Data sizes:     COMMON   BANK0   BANK1   BANK3   BANK2
  2669 ;;      Params:         0       3       0       0       0
  2670 ;;      Locals:         0       4       0       0       0
  2671 ;;      Temps:          0       2       0       0       0
  2672 ;;      Totals:         0       9       0       0       0
  2673 ;;Total ram usage:        9 bytes
  2674 ;; Hardware stack levels used:    1
  2675 ;; Hardware stack levels required when called:    3
  2676 ;; This function calls:
  2677 ;;		___awdiv
  2678 ;;		___awmod
  2679 ;;		___bmul
  2680 ;;		___ftmul
  2681 ;; This function is called by:
  2682 ;;		_sprintf
  2683 ;; This function uses a non-reentrant model
  2684 ;;
  2685                           
  2686                           
  2687                           ;psect for function _scale
  2688  0A5D                     _scale:
  2689                           
  2690                           ;incstack = 0
  2691                           ; Regs used in _scale: [wreg-fsr0h+status,2+status,0+pclath+cstack]
  2692                           ;scale@scl stored from wreg
  2693  0A5D  1283               	bcf	3,5	;RP0=0, select bank0
  2694  0A5E  1303               	bcf	3,6	;RP1=0, select bank0
  2695  0A5F  00C3               	movwf	scale@scl
  2696  0A60                     l3527:
  2697                           
  2698                           ;D:\Microchip\xc8\v2.31\pic\sources\c90\common\doprnt.c: 433: scale(signed char scl);D:\
      +                          Microchip\xc8\v2.31\pic\sources\c90\common\doprnt.c: 434: {;D:\Microchip\xc8\v2.31\pic\s
      +                          ources\c90\common\doprnt.c: 436:  if(scl < 0) {
  2699  0A60  1FC3               	btfss	scale@scl,7
  2700  0A61  2A63               	goto	u4991
  2701  0A62  2A64               	goto	u4990
  2702  0A63                     u4991:
  2703  0A63  2BBF               	goto	l3549
  2704  0A64                     u4990:
  2705  0A64                     l3529:
  2706                           
  2707                           ;D:\Microchip\xc8\v2.31\pic\sources\c90\common\doprnt.c: 437:   scl = -scl;
  2708  0A64  09C3               	comf	scale@scl,f
  2709  0A65  0AC3               	incf	scale@scl,f
  2710  0A66                     l3531:
  2711                           
  2712                           ;D:\Microchip\xc8\v2.31\pic\sources\c90\common\doprnt.c: 438:   if(scl>=110)
  2713  0A66  0843               	movf	scale@scl,w
  2714  0A67  3A80               	xorlw	128
  2715  0A68  3E12               	addlw	-238
  2716  0A69  1C03               	skipc
  2717  0A6A  2A6C               	goto	u5001
  2718  0A6B  2A6D               	goto	u5000
  2719  0A6C                     u5001:
  2720  0A6C  2B2B               	goto	l3539
  2721  0A6D                     u5000:
  2722  0A6D                     l3533:
  2723                           
  2724                           ;D:\Microchip\xc8\v2.31\pic\sources\c90\common\doprnt.c: 439:    return _npowers_[(unsig
      +                          ned char)(scl/100+18)] * _npowers_[(unsigned char)((scl%100)/10+9)] * _npowers_[(unsigne
      +                          d char)(scl%10)];
  2725  0A6D  3003               	movlw	3
  2726  0A6E  00BE               	movwf	??_scale
  2727  0A6F  083E               	movf	??_scale,w
  2728  0A70  00A8               	movwf	___bmul@multiplicand
  2729  0A71  0843               	movf	scale@scl,w
  2730  0A72  00F4               	movwf	___awmod@dividend
  2731  0A73  01F5               	clrf	___awmod@dividend+1
  2732  0A74  1BF4               	btfsc	___awmod@dividend,7
  2733  0A75  03F5               	decf	___awmod@dividend+1,f
  2734  0A76  3064               	movlw	100
  2735  0A77  00F2               	movwf	___awmod@divisor
  2736  0A78  3000               	movlw	0
  2737  0A79  00F3               	movwf	___awmod@divisor+1
  2738  0A7A  160A  118A  21CA  120A  158A  	fcall	___awmod
  2739  0A7F  0873               	movf	?___awmod+1,w
  2740  0A80  1283               	bcf	3,5	;RP0=0, select bank0
  2741  0A81  1303               	bcf	3,6	;RP1=0, select bank0
  2742  0A82  00A3               	movwf	___awdiv@dividend+1
  2743  0A83  0872               	movf	?___awmod,w
  2744  0A84  00A2               	movwf	___awdiv@dividend
  2745  0A85  300A               	movlw	10
  2746  0A86  00A0               	movwf	___awdiv@divisor
  2747  0A87  3000               	movlw	0
  2748  0A88  00A1               	movwf	___awdiv@divisor+1
  2749  0A89  160A  118A  228B  120A  158A  	fcall	___awdiv
  2750  0A8E  1283               	bcf	3,5	;RP0=0, select bank0
  2751  0A8F  1303               	bcf	3,6	;RP1=0, select bank0
  2752  0A90  0820               	movf	?___awdiv,w
  2753  0A91  120A  158A  2001  120A  158A  	fcall	___bmul
  2754  0A96  3E43               	addlw	low (((__npowers_-__stringbase)| (0+32768)+27))
  2755  0A97  0084               	movwf	4
  2756  0A98  160A  118A  200A  120A  158A  	fcall	stringdir
  2757  0A9D  1283               	bcf	3,5	;RP0=0, select bank0
  2758  0A9E  1303               	bcf	3,6	;RP1=0, select bank0
  2759  0A9F  00AB               	movwf	___ftmul@f1
  2760  0AA0  160A  118A  200A  120A  158A  	fcall	stringdir
  2761  0AA5  00AC               	movwf	___ftmul@f1+1
  2762  0AA6  160A  118A  200A  120A  158A  	fcall	stringdir
  2763  0AAB  00AD               	movwf	___ftmul@f1+2
  2764  0AAC  3003               	movlw	3
  2765  0AAD  00BF               	movwf	??_scale+1
  2766  0AAE  083F               	movf	??_scale+1,w
  2767  0AAF  00A8               	movwf	___bmul@multiplicand
  2768  0AB0  0843               	movf	scale@scl,w
  2769  0AB1  00A2               	movwf	___awdiv@dividend
  2770  0AB2  01A3               	clrf	___awdiv@dividend+1
  2771  0AB3  1BA2               	btfsc	___awdiv@dividend,7
  2772  0AB4  03A3               	decf	___awdiv@dividend+1,f
  2773  0AB5  3064               	movlw	100
  2774  0AB6  00A0               	movwf	___awdiv@divisor
  2775  0AB7  3000               	movlw	0
  2776  0AB8  00A1               	movwf	___awdiv@divisor+1
  2777  0AB9  160A  118A  228B  120A  158A  	fcall	___awdiv
  2778  0ABE  1283               	bcf	3,5	;RP0=0, select bank0
  2779  0ABF  1303               	bcf	3,6	;RP1=0, select bank0
  2780  0AC0  0820               	movf	?___awdiv,w
  2781  0AC1  120A  158A  2001  120A  158A  	fcall	___bmul
  2782  0AC6  3E5E               	addlw	low (((__npowers_-__stringbase)| (0+32768)+54))
  2783  0AC7  0084               	movwf	4
  2784  0AC8  160A  118A  200A  120A  158A  	fcall	stringdir
  2785  0ACD  1283               	bcf	3,5	;RP0=0, select bank0
  2786  0ACE  1303               	bcf	3,6	;RP1=0, select bank0
  2787  0ACF  00AE               	movwf	___ftmul@f2
  2788  0AD0  160A  118A  200A  120A  158A  	fcall	stringdir
  2789  0AD5  00AF               	movwf	___ftmul@f2+1
  2790  0AD6  160A  118A  200A  120A  158A  	fcall	stringdir
  2791  0ADB  00B0               	movwf	___ftmul@f2+2
  2792  0ADC  160A  118A  24B9  120A  158A  	fcall	___ftmul
  2793  0AE1  1283               	bcf	3,5	;RP0=0, select bank0
  2794  0AE2  1303               	bcf	3,6	;RP1=0, select bank0
  2795  0AE3  082B               	movf	?___ftmul,w
  2796  0AE4  00C0               	movwf	_scale$1131
  2797  0AE5  082C               	movf	?___ftmul+1,w
  2798  0AE6  00C1               	movwf	_scale$1131+1
  2799  0AE7  082D               	movf	?___ftmul+2,w
  2800  0AE8  00C2               	movwf	_scale$1131+2
  2801                           
  2802                           ;D:\Microchip\xc8\v2.31\pic\sources\c90\common\doprnt.c: 439:    return _npowers_[(unsig
      +                          ned char)(scl/100+18)] * _npowers_[(unsigned char)((scl%100)/10+9)] * _npowers_[(unsigne
      +                          d char)(scl%10)];
  2803  0AE9  3003               	movlw	3
  2804  0AEA  00BE               	movwf	??_scale
  2805  0AEB  083E               	movf	??_scale,w
  2806  0AEC  00A8               	movwf	___bmul@multiplicand
  2807  0AED  0843               	movf	scale@scl,w
  2808  0AEE  00F4               	movwf	___awmod@dividend
  2809  0AEF  01F5               	clrf	___awmod@dividend+1
  2810  0AF0  1BF4               	btfsc	___awmod@dividend,7
  2811  0AF1  03F5               	decf	___awmod@dividend+1,f
  2812  0AF2  300A               	movlw	10
  2813  0AF3  00F2               	movwf	___awmod@divisor
  2814  0AF4  3000               	movlw	0
  2815  0AF5  00F3               	movwf	___awmod@divisor+1
  2816  0AF6  160A  118A  21CA  120A  158A  	fcall	___awmod
  2817  0AFB  0872               	movf	?___awmod,w
  2818  0AFC  120A  158A  2001  120A  158A  	fcall	___bmul
  2819  0B01  3E28               	addlw	low ((__npowers_-__stringbase)| (0+32768))
  2820  0B02  0084               	movwf	4
  2821  0B03  160A  118A  200A  120A  158A  	fcall	stringdir
  2822  0B08  1283               	bcf	3,5	;RP0=0, select bank0
  2823  0B09  1303               	bcf	3,6	;RP1=0, select bank0
  2824  0B0A  00AB               	movwf	___ftmul@f1
  2825  0B0B  160A  118A  200A  120A  158A  	fcall	stringdir
  2826  0B10  00AC               	movwf	___ftmul@f1+1
  2827  0B11  160A  118A  200A  120A  158A  	fcall	stringdir
  2828  0B16  00AD               	movwf	___ftmul@f1+2
  2829  0B17  0840               	movf	_scale$1131,w
  2830  0B18  00AE               	movwf	___ftmul@f2
  2831  0B19  0841               	movf	_scale$1131+1,w
  2832  0B1A  00AF               	movwf	___ftmul@f2+1
  2833  0B1B  0842               	movf	_scale$1131+2,w
  2834  0B1C  00B0               	movwf	___ftmul@f2+2
  2835  0B1D  160A  118A  24B9  120A  158A  	fcall	___ftmul
  2836  0B22  1283               	bcf	3,5	;RP0=0, select bank0
  2837  0B23  1303               	bcf	3,6	;RP1=0, select bank0
  2838  0B24  082B               	movf	?___ftmul,w
  2839  0B25  00BB               	movwf	?_scale
  2840  0B26  082C               	movf	?___ftmul+1,w
  2841  0B27  00BC               	movwf	?_scale+1
  2842  0B28  082D               	movf	?___ftmul+2,w
  2843  0B29  00BD               	movwf	?_scale+2
  2844  0B2A  2D17               	goto	l329
  2845  0B2B                     l3539:
  2846  0B2B  0843               	movf	scale@scl,w
  2847  0B2C  3A80               	xorlw	128
  2848  0B2D  3E75               	addlw	-139
  2849  0B2E  1C03               	skipc
  2850  0B2F  2B31               	goto	u5011
  2851  0B30  2B32               	goto	u5010
  2852  0B31                     u5011:
  2853  0B31  2B9E               	goto	l3545
  2854  0B32                     u5010:
  2855  0B32                     l3541:
  2856                           
  2857                           ;D:\Microchip\xc8\v2.31\pic\sources\c90\common\doprnt.c: 441:    return _npowers_[(unsig
      +                          ned char)(scl/10+9)] * _npowers_[(unsigned char)(scl%10)];
  2858  0B32  3003               	movlw	3
  2859  0B33  00BE               	movwf	??_scale
  2860  0B34  083E               	movf	??_scale,w
  2861  0B35  00A8               	movwf	___bmul@multiplicand
  2862  0B36  0843               	movf	scale@scl,w
  2863  0B37  00F4               	movwf	___awmod@dividend
  2864  0B38  01F5               	clrf	___awmod@dividend+1
  2865  0B39  1BF4               	btfsc	___awmod@dividend,7
  2866  0B3A  03F5               	decf	___awmod@dividend+1,f
  2867  0B3B  300A               	movlw	10
  2868  0B3C  00F2               	movwf	___awmod@divisor
  2869  0B3D  3000               	movlw	0
  2870  0B3E  00F3               	movwf	___awmod@divisor+1
  2871  0B3F  160A  118A  21CA  120A  158A  	fcall	___awmod
  2872  0B44  0872               	movf	?___awmod,w
  2873  0B45  120A  158A  2001  120A  158A  	fcall	___bmul
  2874  0B4A  3E28               	addlw	low ((__npowers_-__stringbase)| (0+32768))
  2875  0B4B  0084               	movwf	4
  2876  0B4C  160A  118A  200A  120A  158A  	fcall	stringdir
  2877  0B51  1283               	bcf	3,5	;RP0=0, select bank0
  2878  0B52  1303               	bcf	3,6	;RP1=0, select bank0
  2879  0B53  00AB               	movwf	___ftmul@f1
  2880  0B54  160A  118A  200A  120A  158A  	fcall	stringdir
  2881  0B59  00AC               	movwf	___ftmul@f1+1
  2882  0B5A  160A  118A  200A  120A  158A  	fcall	stringdir
  2883  0B5F  00AD               	movwf	___ftmul@f1+2
  2884  0B60  3003               	movlw	3
  2885  0B61  00BF               	movwf	??_scale+1
  2886  0B62  083F               	movf	??_scale+1,w
  2887  0B63  00A8               	movwf	___bmul@multiplicand
  2888  0B64  0843               	movf	scale@scl,w
  2889  0B65  00A2               	movwf	___awdiv@dividend
  2890  0B66  01A3               	clrf	___awdiv@dividend+1
  2891  0B67  1BA2               	btfsc	___awdiv@dividend,7
  2892  0B68  03A3               	decf	___awdiv@dividend+1,f
  2893  0B69  300A               	movlw	10
  2894  0B6A  00A0               	movwf	___awdiv@divisor
  2895  0B6B  3000               	movlw	0
  2896  0B6C  00A1               	movwf	___awdiv@divisor+1
  2897  0B6D  160A  118A  228B  120A  158A  	fcall	___awdiv
  2898  0B72  1283               	bcf	3,5	;RP0=0, select bank0
  2899  0B73  1303               	bcf	3,6	;RP1=0, select bank0
  2900  0B74  0820               	movf	?___awdiv,w
  2901  0B75  120A  158A  2001  120A  158A  	fcall	___bmul
  2902  0B7A  3E43               	addlw	low (((__npowers_-__stringbase)| (0+32768)+27))
  2903  0B7B  0084               	movwf	4
  2904  0B7C  160A  118A  200A  120A  158A  	fcall	stringdir
  2905  0B81  1283               	bcf	3,5	;RP0=0, select bank0
  2906  0B82  1303               	bcf	3,6	;RP1=0, select bank0
  2907  0B83  00AE               	movwf	___ftmul@f2
  2908  0B84  160A  118A  200A  120A  158A  	fcall	stringdir
  2909  0B89  00AF               	movwf	___ftmul@f2+1
  2910  0B8A  160A  118A  200A  120A  158A  	fcall	stringdir
  2911  0B8F  00B0               	movwf	___ftmul@f2+2
  2912  0B90  160A  118A  24B9  120A  158A  	fcall	___ftmul
  2913  0B95  1283               	bcf	3,5	;RP0=0, select bank0
  2914  0B96  1303               	bcf	3,6	;RP1=0, select bank0
  2915  0B97  082B               	movf	?___ftmul,w
  2916  0B98  00BB               	movwf	?_scale
  2917  0B99  082C               	movf	?___ftmul+1,w
  2918  0B9A  00BC               	movwf	?_scale+1
  2919  0B9B  082D               	movf	?___ftmul+2,w
  2920  0B9C  00BD               	movwf	?_scale+2
  2921  0B9D  2D17               	goto	l329
  2922  0B9E                     l3545:
  2923                           
  2924                           ;D:\Microchip\xc8\v2.31\pic\sources\c90\common\doprnt.c: 442:   return _npowers_[(unsign
      +                          ed char)scl];
  2925  0B9E  3003               	movlw	3
  2926  0B9F  00BE               	movwf	??_scale
  2927  0BA0  083E               	movf	??_scale,w
  2928  0BA1  00A8               	movwf	___bmul@multiplicand
  2929  0BA2  0843               	movf	scale@scl,w
  2930  0BA3  120A  158A  2001  120A  158A  	fcall	___bmul
  2931  0BA8  3E28               	addlw	low ((__npowers_-__stringbase)| (0+32768))
  2932  0BA9  0084               	movwf	4
  2933  0BAA  160A  118A  200A  120A  158A  	fcall	stringdir
  2934  0BAF  1283               	bcf	3,5	;RP0=0, select bank0
  2935  0BB0  1303               	bcf	3,6	;RP1=0, select bank0
  2936  0BB1  00BB               	movwf	?_scale
  2937  0BB2  160A  118A  200A  120A  158A  	fcall	stringdir
  2938  0BB7  00BC               	movwf	?_scale+1
  2939  0BB8  160A  118A  200A  120A  158A  	fcall	stringdir
  2940  0BBD  00BD               	movwf	?_scale+2
  2941  0BBE  2D17               	goto	l329
  2942  0BBF                     l3549:
  2943                           
  2944                           ;D:\Microchip\xc8\v2.31\pic\sources\c90\common\doprnt.c: 444:  if(scl>=110)
  2945  0BBF  0843               	movf	scale@scl,w
  2946  0BC0  3A80               	xorlw	128
  2947  0BC1  3E12               	addlw	-238
  2948  0BC2  1C03               	skipc
  2949  0BC3  2BC5               	goto	u5021
  2950  0BC4  2BC6               	goto	u5020
  2951  0BC5                     u5021:
  2952  0BC5  2C84               	goto	l3557
  2953  0BC6                     u5020:
  2954  0BC6                     l3551:
  2955                           
  2956                           ;D:\Microchip\xc8\v2.31\pic\sources\c90\common\doprnt.c: 445:   return _powers_[(unsigne
      +                          d char)(scl/100+18)] * _powers_[(unsigned char)((scl%100)/10+9)] * _powers_[(unsigned ch
      +                          ar)(scl%10)];
  2957  0BC6  3003               	movlw	3
  2958  0BC7  00BE               	movwf	??_scale
  2959  0BC8  083E               	movf	??_scale,w
  2960  0BC9  00A8               	movwf	___bmul@multiplicand
  2961  0BCA  0843               	movf	scale@scl,w
  2962  0BCB  00F4               	movwf	___awmod@dividend
  2963  0BCC  01F5               	clrf	___awmod@dividend+1
  2964  0BCD  1BF4               	btfsc	___awmod@dividend,7
  2965  0BCE  03F5               	decf	___awmod@dividend+1,f
  2966  0BCF  3064               	movlw	100
  2967  0BD0  00F2               	movwf	___awmod@divisor
  2968  0BD1  3000               	movlw	0
  2969  0BD2  00F3               	movwf	___awmod@divisor+1
  2970  0BD3  160A  118A  21CA  120A  158A  	fcall	___awmod
  2971  0BD8  0873               	movf	?___awmod+1,w
  2972  0BD9  1283               	bcf	3,5	;RP0=0, select bank0
  2973  0BDA  1303               	bcf	3,6	;RP1=0, select bank0
  2974  0BDB  00A3               	movwf	___awdiv@dividend+1
  2975  0BDC  0872               	movf	?___awmod,w
  2976  0BDD  00A2               	movwf	___awdiv@dividend
  2977  0BDE  300A               	movlw	10
  2978  0BDF  00A0               	movwf	___awdiv@divisor
  2979  0BE0  3000               	movlw	0
  2980  0BE1  00A1               	movwf	___awdiv@divisor+1
  2981  0BE2  160A  118A  228B  120A  158A  	fcall	___awdiv
  2982  0BE7  1283               	bcf	3,5	;RP0=0, select bank0
  2983  0BE8  1303               	bcf	3,6	;RP1=0, select bank0
  2984  0BE9  0820               	movf	?___awdiv,w
  2985  0BEA  120A  158A  2001  120A  158A  	fcall	___bmul
  2986  0BEF  3E1C               	addlw	low (((__powers_-__stringbase)| (0+32768)+27))
  2987  0BF0  0084               	movwf	4
  2988  0BF1  160A  118A  200A  120A  158A  	fcall	stringdir
  2989  0BF6  1283               	bcf	3,5	;RP0=0, select bank0
  2990  0BF7  1303               	bcf	3,6	;RP1=0, select bank0
  2991  0BF8  00AB               	movwf	___ftmul@f1
  2992  0BF9  160A  118A  200A  120A  158A  	fcall	stringdir
  2993  0BFE  00AC               	movwf	___ftmul@f1+1
  2994  0BFF  160A  118A  200A  120A  158A  	fcall	stringdir
  2995  0C04  00AD               	movwf	___ftmul@f1+2
  2996  0C05  3003               	movlw	3
  2997  0C06  00BF               	movwf	??_scale+1
  2998  0C07  083F               	movf	??_scale+1,w
  2999  0C08  00A8               	movwf	___bmul@multiplicand
  3000  0C09  0843               	movf	scale@scl,w
  3001  0C0A  00A2               	movwf	___awdiv@dividend
  3002  0C0B  01A3               	clrf	___awdiv@dividend+1
  3003  0C0C  1BA2               	btfsc	___awdiv@dividend,7
  3004  0C0D  03A3               	decf	___awdiv@dividend+1,f
  3005  0C0E  3064               	movlw	100
  3006  0C0F  00A0               	movwf	___awdiv@divisor
  3007  0C10  3000               	movlw	0
  3008  0C11  00A1               	movwf	___awdiv@divisor+1
  3009  0C12  160A  118A  228B  120A  158A  	fcall	___awdiv
  3010  0C17  1283               	bcf	3,5	;RP0=0, select bank0
  3011  0C18  1303               	bcf	3,6	;RP1=0, select bank0
  3012  0C19  0820               	movf	?___awdiv,w
  3013  0C1A  120A  158A  2001  120A  158A  	fcall	___bmul
  3014  0C1F  3E37               	addlw	low (((__powers_-__stringbase)| (0+32768)+54))
  3015  0C20  0084               	movwf	4
  3016  0C21  160A  118A  200A  120A  158A  	fcall	stringdir
  3017  0C26  1283               	bcf	3,5	;RP0=0, select bank0
  3018  0C27  1303               	bcf	3,6	;RP1=0, select bank0
  3019  0C28  00AE               	movwf	___ftmul@f2
  3020  0C29  160A  118A  200A  120A  158A  	fcall	stringdir
  3021  0C2E  00AF               	movwf	___ftmul@f2+1
  3022  0C2F  160A  118A  200A  120A  158A  	fcall	stringdir
  3023  0C34  00B0               	movwf	___ftmul@f2+2
  3024  0C35  160A  118A  24B9  120A  158A  	fcall	___ftmul
  3025  0C3A  1283               	bcf	3,5	;RP0=0, select bank0
  3026  0C3B  1303               	bcf	3,6	;RP1=0, select bank0
  3027  0C3C  082B               	movf	?___ftmul,w
  3028  0C3D  00C0               	movwf	_scale$1131
  3029  0C3E  082C               	movf	?___ftmul+1,w
  3030  0C3F  00C1               	movwf	_scale$1131+1
  3031  0C40  082D               	movf	?___ftmul+2,w
  3032  0C41  00C2               	movwf	_scale$1131+2
  3033                           
  3034                           ;D:\Microchip\xc8\v2.31\pic\sources\c90\common\doprnt.c: 445:   return _powers_[(unsigne
      +                          d char)(scl/100+18)] * _powers_[(unsigned char)((scl%100)/10+9)] * _powers_[(unsigned ch
      +                          ar)(scl%10)];
  3035  0C42  3003               	movlw	3
  3036  0C43  00BE               	movwf	??_scale
  3037  0C44  083E               	movf	??_scale,w
  3038  0C45  00A8               	movwf	___bmul@multiplicand
  3039  0C46  0843               	movf	scale@scl,w
  3040  0C47  00F4               	movwf	___awmod@dividend
  3041  0C48  01F5               	clrf	___awmod@dividend+1
  3042  0C49  1BF4               	btfsc	___awmod@dividend,7
  3043  0C4A  03F5               	decf	___awmod@dividend+1,f
  3044  0C4B  300A               	movlw	10
  3045  0C4C  00F2               	movwf	___awmod@divisor
  3046  0C4D  3000               	movlw	0
  3047  0C4E  00F3               	movwf	___awmod@divisor+1
  3048  0C4F  160A  118A  21CA  120A  158A  	fcall	___awmod
  3049  0C54  0872               	movf	?___awmod,w
  3050  0C55  120A  158A  2001  120A  158A  	fcall	___bmul
  3051  0C5A  3E01               	addlw	low ((__powers_-__stringbase)| (0+32768))
  3052  0C5B  0084               	movwf	4
  3053  0C5C  160A  118A  200A  120A  158A  	fcall	stringdir
  3054  0C61  1283               	bcf	3,5	;RP0=0, select bank0
  3055  0C62  1303               	bcf	3,6	;RP1=0, select bank0
  3056  0C63  00AB               	movwf	___ftmul@f1
  3057  0C64  160A  118A  200A  120A  158A  	fcall	stringdir
  3058  0C69  00AC               	movwf	___ftmul@f1+1
  3059  0C6A  160A  118A  200A  120A  158A  	fcall	stringdir
  3060  0C6F  00AD               	movwf	___ftmul@f1+2
  3061  0C70  0840               	movf	_scale$1131,w
  3062  0C71  00AE               	movwf	___ftmul@f2
  3063  0C72  0841               	movf	_scale$1131+1,w
  3064  0C73  00AF               	movwf	___ftmul@f2+1
  3065  0C74  0842               	movf	_scale$1131+2,w
  3066  0C75  00B0               	movwf	___ftmul@f2+2
  3067  0C76  160A  118A  24B9  120A  158A  	fcall	___ftmul
  3068  0C7B  1283               	bcf	3,5	;RP0=0, select bank0
  3069  0C7C  1303               	bcf	3,6	;RP1=0, select bank0
  3070  0C7D  082B               	movf	?___ftmul,w
  3071  0C7E  00BB               	movwf	?_scale
  3072  0C7F  082C               	movf	?___ftmul+1,w
  3073  0C80  00BC               	movwf	?_scale+1
  3074  0C81  082D               	movf	?___ftmul+2,w
  3075  0C82  00BD               	movwf	?_scale+2
  3076  0C83  2D17               	goto	l329
  3077  0C84                     l3557:
  3078  0C84  0843               	movf	scale@scl,w
  3079  0C85  3A80               	xorlw	128
  3080  0C86  3E75               	addlw	-139
  3081  0C87  1C03               	skipc
  3082  0C88  2C8A               	goto	u5031
  3083  0C89  2C8B               	goto	u5030
  3084  0C8A                     u5031:
  3085  0C8A  2CF7               	goto	l3563
  3086  0C8B                     u5030:
  3087  0C8B                     l3559:
  3088                           
  3089                           ;D:\Microchip\xc8\v2.31\pic\sources\c90\common\doprnt.c: 447:   return _powers_[(unsigne
      +                          d char)(scl/10+9)] * _powers_[(unsigned char)(scl%10)];
  3090  0C8B  3003               	movlw	3
  3091  0C8C  00BE               	movwf	??_scale
  3092  0C8D  083E               	movf	??_scale,w
  3093  0C8E  00A8               	movwf	___bmul@multiplicand
  3094  0C8F  0843               	movf	scale@scl,w
  3095  0C90  00F4               	movwf	___awmod@dividend
  3096  0C91  01F5               	clrf	___awmod@dividend+1
  3097  0C92  1BF4               	btfsc	___awmod@dividend,7
  3098  0C93  03F5               	decf	___awmod@dividend+1,f
  3099  0C94  300A               	movlw	10
  3100  0C95  00F2               	movwf	___awmod@divisor
  3101  0C96  3000               	movlw	0
  3102  0C97  00F3               	movwf	___awmod@divisor+1
  3103  0C98  160A  118A  21CA  120A  158A  	fcall	___awmod
  3104  0C9D  0872               	movf	?___awmod,w
  3105  0C9E  120A  158A  2001  120A  158A  	fcall	___bmul
  3106  0CA3  3E01               	addlw	low ((__powers_-__stringbase)| (0+32768))
  3107  0CA4  0084               	movwf	4
  3108  0CA5  160A  118A  200A  120A  158A  	fcall	stringdir
  3109  0CAA  1283               	bcf	3,5	;RP0=0, select bank0
  3110  0CAB  1303               	bcf	3,6	;RP1=0, select bank0
  3111  0CAC  00AB               	movwf	___ftmul@f1
  3112  0CAD  160A  118A  200A  120A  158A  	fcall	stringdir
  3113  0CB2  00AC               	movwf	___ftmul@f1+1
  3114  0CB3  160A  118A  200A  120A  158A  	fcall	stringdir
  3115  0CB8  00AD               	movwf	___ftmul@f1+2
  3116  0CB9  3003               	movlw	3
  3117  0CBA  00BF               	movwf	??_scale+1
  3118  0CBB  083F               	movf	??_scale+1,w
  3119  0CBC  00A8               	movwf	___bmul@multiplicand
  3120  0CBD  0843               	movf	scale@scl,w
  3121  0CBE  00A2               	movwf	___awdiv@dividend
  3122  0CBF  01A3               	clrf	___awdiv@dividend+1
  3123  0CC0  1BA2               	btfsc	___awdiv@dividend,7
  3124  0CC1  03A3               	decf	___awdiv@dividend+1,f
  3125  0CC2  300A               	movlw	10
  3126  0CC3  00A0               	movwf	___awdiv@divisor
  3127  0CC4  3000               	movlw	0
  3128  0CC5  00A1               	movwf	___awdiv@divisor+1
  3129  0CC6  160A  118A  228B  120A  158A  	fcall	___awdiv
  3130  0CCB  1283               	bcf	3,5	;RP0=0, select bank0
  3131  0CCC  1303               	bcf	3,6	;RP1=0, select bank0
  3132  0CCD  0820               	movf	?___awdiv,w
  3133  0CCE  120A  158A  2001  120A  158A  	fcall	___bmul
  3134  0CD3  3E1C               	addlw	low (((__powers_-__stringbase)| (0+32768)+27))
  3135  0CD4  0084               	movwf	4
  3136  0CD5  160A  118A  200A  120A  158A  	fcall	stringdir
  3137  0CDA  1283               	bcf	3,5	;RP0=0, select bank0
  3138  0CDB  1303               	bcf	3,6	;RP1=0, select bank0
  3139  0CDC  00AE               	movwf	___ftmul@f2
  3140  0CDD  160A  118A  200A  120A  158A  	fcall	stringdir
  3141  0CE2  00AF               	movwf	___ftmul@f2+1
  3142  0CE3  160A  118A  200A  120A  158A  	fcall	stringdir
  3143  0CE8  00B0               	movwf	___ftmul@f2+2
  3144  0CE9  160A  118A  24B9  120A  158A  	fcall	___ftmul
  3145  0CEE  1283               	bcf	3,5	;RP0=0, select bank0
  3146  0CEF  1303               	bcf	3,6	;RP1=0, select bank0
  3147  0CF0  082B               	movf	?___ftmul,w
  3148  0CF1  00BB               	movwf	?_scale
  3149  0CF2  082C               	movf	?___ftmul+1,w
  3150  0CF3  00BC               	movwf	?_scale+1
  3151  0CF4  082D               	movf	?___ftmul+2,w
  3152  0CF5  00BD               	movwf	?_scale+2
  3153  0CF6  2D17               	goto	l329
  3154  0CF7                     l3563:
  3155                           
  3156                           ;D:\Microchip\xc8\v2.31\pic\sources\c90\common\doprnt.c: 448:  return _powers_[(unsigned
      +                           char)scl];
  3157  0CF7  3003               	movlw	3
  3158  0CF8  00BE               	movwf	??_scale
  3159  0CF9  083E               	movf	??_scale,w
  3160  0CFA  00A8               	movwf	___bmul@multiplicand
  3161  0CFB  0843               	movf	scale@scl,w
  3162  0CFC  120A  158A  2001  120A  158A  	fcall	___bmul
  3163  0D01  3E01               	addlw	low ((__powers_-__stringbase)| (0+32768))
  3164  0D02  0084               	movwf	4
  3165  0D03  160A  118A  200A  120A  158A  	fcall	stringdir
  3166  0D08  1283               	bcf	3,5	;RP0=0, select bank0
  3167  0D09  1303               	bcf	3,6	;RP1=0, select bank0
  3168  0D0A  00BB               	movwf	?_scale
  3169  0D0B  160A  118A  200A  120A  158A  	fcall	stringdir
  3170  0D10  00BC               	movwf	?_scale+1
  3171  0D11  160A  118A  200A  120A  158A  	fcall	stringdir
  3172  0D16  00BD               	movwf	?_scale+2
  3173  0D17                     l329:
  3174  0D17  0008               	return
  3175  0D18                     __end_of_scale:
  3176                           
  3177                           	psect	text3
  3178  11CA                     __ptext3:	
  3179 ;; *************** function ___awmod *****************
  3180 ;; Defined at:
  3181 ;;		line 5 in file "D:\Microchip\xc8\v2.31\pic\sources\c90\common\awmod.c"
  3182 ;; Parameters:    Size  Location     Type
  3183 ;;  divisor         2    2[COMMON] int 
  3184 ;;  dividend        2    4[COMMON] int 
  3185 ;; Auto vars:     Size  Location     Type
  3186 ;;  sign            1    8[COMMON] unsigned char 
  3187 ;;  counter         1    7[COMMON] unsigned char 
  3188 ;; Return value:  Size  Location     Type
  3189 ;;                  2    2[COMMON] int 
  3190 ;; Registers used:
  3191 ;;		wreg, status,2, status,0
  3192 ;; Tracked objects:
  3193 ;;		On entry : 0/0
  3194 ;;		On exit  : 0/0
  3195 ;;		Unchanged: 0/0
  3196 ;; Data sizes:     COMMON   BANK0   BANK1   BANK3   BANK2
  3197 ;;      Params:         4       0       0       0       0
  3198 ;;      Locals:         2       0       0       0       0
  3199 ;;      Temps:          1       0       0       0       0
  3200 ;;      Totals:         7       0       0       0       0
  3201 ;;Total ram usage:        7 bytes
  3202 ;; Hardware stack levels used:    1
  3203 ;; Hardware stack levels required when called:    1
  3204 ;; This function calls:
  3205 ;;		Nothing
  3206 ;; This function is called by:
  3207 ;;		_scale
  3208 ;; This function uses a non-reentrant model
  3209 ;;
  3210                           
  3211                           
  3212                           ;psect for function ___awmod
  3213  11CA                     ___awmod:
  3214  11CA                     l2203:	
  3215                           ;incstack = 0
  3216                           ; Regs used in ___awmod: [wreg+status,2+status,0]
  3217                           
  3218  11CA  01F8               	clrf	___awmod@sign
  3219  11CB                     l2205:
  3220  11CB  1FF5               	btfss	___awmod@dividend+1,7
  3221  11CC  29CE               	goto	u2441
  3222  11CD  29CF               	goto	u2440
  3223  11CE                     u2441:
  3224  11CE  29D6               	goto	l2211
  3225  11CF                     u2440:
  3226  11CF                     l2207:
  3227  11CF  09F4               	comf	___awmod@dividend,f
  3228  11D0  09F5               	comf	___awmod@dividend+1,f
  3229  11D1  0AF4               	incf	___awmod@dividend,f
  3230  11D2  1903               	skipnz
  3231  11D3  0AF5               	incf	___awmod@dividend+1,f
  3232  11D4                     l2209:
  3233  11D4  01F8               	clrf	___awmod@sign
  3234  11D5  0AF8               	incf	___awmod@sign,f
  3235  11D6                     l2211:
  3236  11D6  1FF3               	btfss	___awmod@divisor+1,7
  3237  11D7  29D9               	goto	u2451
  3238  11D8  29DA               	goto	u2450
  3239  11D9                     u2451:
  3240  11D9  29DF               	goto	l2215
  3241  11DA                     u2450:
  3242  11DA                     l2213:
  3243  11DA  09F2               	comf	___awmod@divisor,f
  3244  11DB  09F3               	comf	___awmod@divisor+1,f
  3245  11DC  0AF2               	incf	___awmod@divisor,f
  3246  11DD  1903               	skipnz
  3247  11DE  0AF3               	incf	___awmod@divisor+1,f
  3248  11DF                     l2215:
  3249  11DF  0872               	movf	___awmod@divisor,w
  3250  11E0  0473               	iorwf	___awmod@divisor+1,w
  3251  11E1  1903               	btfsc	3,2
  3252  11E2  29E4               	goto	u2461
  3253  11E3  29E5               	goto	u2460
  3254  11E4                     u2461:
  3255  11E4  2A14               	goto	l2233
  3256  11E5                     u2460:
  3257  11E5                     l2217:
  3258  11E5  01F7               	clrf	___awmod@counter
  3259  11E6  0AF7               	incf	___awmod@counter,f
  3260  11E7  29F3               	goto	l2223
  3261  11E8                     l2219:
  3262  11E8  3001               	movlw	1
  3263  11E9                     u2475:
  3264  11E9  1003               	clrc
  3265  11EA  0DF2               	rlf	___awmod@divisor,f
  3266  11EB  0DF3               	rlf	___awmod@divisor+1,f
  3267  11EC  3EFF               	addlw	-1
  3268  11ED  1D03               	skipz
  3269  11EE  29E9               	goto	u2475
  3270  11EF                     l2221:
  3271  11EF  3001               	movlw	1
  3272  11F0  00F6               	movwf	??___awmod
  3273  11F1  0876               	movf	??___awmod,w
  3274  11F2  07F7               	addwf	___awmod@counter,f
  3275  11F3                     l2223:
  3276  11F3  1FF3               	btfss	___awmod@divisor+1,7
  3277  11F4  29F6               	goto	u2481
  3278  11F5  29F7               	goto	u2480
  3279  11F6                     u2481:
  3280  11F6  29E8               	goto	l2219
  3281  11F7                     u2480:
  3282  11F7                     l2225:
  3283  11F7  0873               	movf	___awmod@divisor+1,w
  3284  11F8  0275               	subwf	___awmod@dividend+1,w
  3285  11F9  1D03               	skipz
  3286  11FA  29FD               	goto	u2495
  3287  11FB  0872               	movf	___awmod@divisor,w
  3288  11FC  0274               	subwf	___awmod@dividend,w
  3289  11FD                     u2495:
  3290  11FD  1C03               	skipc
  3291  11FE  2A00               	goto	u2491
  3292  11FF  2A01               	goto	u2490
  3293  1200                     u2491:
  3294  1200  2A07               	goto	l2229
  3295  1201                     u2490:
  3296  1201                     l2227:
  3297  1201  0872               	movf	___awmod@divisor,w
  3298  1202  02F4               	subwf	___awmod@dividend,f
  3299  1203  0873               	movf	___awmod@divisor+1,w
  3300  1204  1C03               	skipc
  3301  1205  03F5               	decf	___awmod@dividend+1,f
  3302  1206  02F5               	subwf	___awmod@dividend+1,f
  3303  1207                     l2229:
  3304  1207  3001               	movlw	1
  3305  1208                     u2505:
  3306  1208  1003               	clrc
  3307  1209  0CF3               	rrf	___awmod@divisor+1,f
  3308  120A  0CF2               	rrf	___awmod@divisor,f
  3309  120B  3EFF               	addlw	-1
  3310  120C  1D03               	skipz
  3311  120D  2A08               	goto	u2505
  3312  120E                     l2231:
  3313  120E  3001               	movlw	1
  3314  120F  02F7               	subwf	___awmod@counter,f
  3315  1210  1D03               	btfss	3,2
  3316  1211  2A13               	goto	u2511
  3317  1212  2A14               	goto	u2510
  3318  1213                     u2511:
  3319  1213  29F7               	goto	l2225
  3320  1214                     u2510:
  3321  1214                     l2233:
  3322  1214  0878               	movf	___awmod@sign,w
  3323  1215  1903               	btfsc	3,2
  3324  1216  2A18               	goto	u2521
  3325  1217  2A19               	goto	u2520
  3326  1218                     u2521:
  3327  1218  2A1E               	goto	l2237
  3328  1219                     u2520:
  3329  1219                     l2235:
  3330  1219  09F4               	comf	___awmod@dividend,f
  3331  121A  09F5               	comf	___awmod@dividend+1,f
  3332  121B  0AF4               	incf	___awmod@dividend,f
  3333  121C  1903               	skipnz
  3334  121D  0AF5               	incf	___awmod@dividend+1,f
  3335  121E                     l2237:
  3336  121E  0875               	movf	___awmod@dividend+1,w
  3337  121F  00F3               	movwf	?___awmod+1
  3338  1220  0874               	movf	___awmod@dividend,w
  3339  1221  00F2               	movwf	?___awmod
  3340  1222                     l621:
  3341  1222  0008               	return
  3342  1223                     __end_of___awmod:
  3343                           
  3344                           	psect	text4
  3345  128B                     __ptext4:	
  3346 ;; *************** function ___awdiv *****************
  3347 ;; Defined at:
  3348 ;;		line 5 in file "D:\Microchip\xc8\v2.31\pic\sources\c90\common\awdiv.c"
  3349 ;; Parameters:    Size  Location     Type
  3350 ;;  divisor         2    0[BANK0 ] int 
  3351 ;;  dividend        2    2[BANK0 ] int 
  3352 ;; Auto vars:     Size  Location     Type
  3353 ;;  quotient        2    6[BANK0 ] int 
  3354 ;;  sign            1    5[BANK0 ] unsigned char 
  3355 ;;  counter         1    4[BANK0 ] unsigned char 
  3356 ;; Return value:  Size  Location     Type
  3357 ;;                  2    0[BANK0 ] int 
  3358 ;; Registers used:
  3359 ;;		wreg, status,2, status,0
  3360 ;; Tracked objects:
  3361 ;;		On entry : 0/0
  3362 ;;		On exit  : 0/0
  3363 ;;		Unchanged: 0/0
  3364 ;; Data sizes:     COMMON   BANK0   BANK1   BANK3   BANK2
  3365 ;;      Params:         0       4       0       0       0
  3366 ;;      Locals:         0       4       0       0       0
  3367 ;;      Temps:          1       0       0       0       0
  3368 ;;      Totals:         1       8       0       0       0
  3369 ;;Total ram usage:        9 bytes
  3370 ;; Hardware stack levels used:    1
  3371 ;; Hardware stack levels required when called:    1
  3372 ;; This function calls:
  3373 ;;		Nothing
  3374 ;; This function is called by:
  3375 ;;		_scale
  3376 ;;		_sprintf
  3377 ;; This function uses a non-reentrant model
  3378 ;;
  3379                           
  3380                           
  3381                           ;psect for function ___awdiv
  3382  128B                     ___awdiv:
  3383  128B                     l2159:	
  3384                           ;incstack = 0
  3385                           ; Regs used in ___awdiv: [wreg+status,2+status,0]
  3386                           
  3387  128B  1283               	bcf	3,5	;RP0=0, select bank0
  3388  128C  1303               	bcf	3,6	;RP1=0, select bank0
  3389  128D  01A5               	clrf	___awdiv@sign
  3390  128E                     l2161:
  3391  128E  1FA1               	btfss	___awdiv@divisor+1,7
  3392  128F  2A91               	goto	u2341
  3393  1290  2A92               	goto	u2340
  3394  1291                     u2341:
  3395  1291  2A99               	goto	l2167
  3396  1292                     u2340:
  3397  1292                     l2163:
  3398  1292  09A0               	comf	___awdiv@divisor,f
  3399  1293  09A1               	comf	___awdiv@divisor+1,f
  3400  1294  0AA0               	incf	___awdiv@divisor,f
  3401  1295  1903               	skipnz
  3402  1296  0AA1               	incf	___awdiv@divisor+1,f
  3403  1297                     l2165:
  3404  1297  01A5               	clrf	___awdiv@sign
  3405  1298  0AA5               	incf	___awdiv@sign,f
  3406  1299                     l2167:
  3407  1299  1FA3               	btfss	___awdiv@dividend+1,7
  3408  129A  2A9C               	goto	u2351
  3409  129B  2A9D               	goto	u2350
  3410  129C                     u2351:
  3411  129C  2AA6               	goto	l2173
  3412  129D                     u2350:
  3413  129D                     l2169:
  3414  129D  09A2               	comf	___awdiv@dividend,f
  3415  129E  09A3               	comf	___awdiv@dividend+1,f
  3416  129F  0AA2               	incf	___awdiv@dividend,f
  3417  12A0  1903               	skipnz
  3418  12A1  0AA3               	incf	___awdiv@dividend+1,f
  3419  12A2                     l2171:
  3420  12A2  3001               	movlw	1
  3421  12A3  00F9               	movwf	??___awdiv
  3422  12A4  0879               	movf	??___awdiv,w
  3423  12A5  06A5               	xorwf	___awdiv@sign,f
  3424  12A6                     l2173:
  3425  12A6  01A6               	clrf	___awdiv@quotient
  3426  12A7  01A7               	clrf	___awdiv@quotient+1
  3427  12A8                     l2175:
  3428  12A8  0820               	movf	___awdiv@divisor,w
  3429  12A9  0421               	iorwf	___awdiv@divisor+1,w
  3430  12AA  1903               	btfsc	3,2
  3431  12AB  2AAD               	goto	u2361
  3432  12AC  2AAE               	goto	u2360
  3433  12AD                     u2361:
  3434  12AD  2AE5               	goto	l2195
  3435  12AE                     u2360:
  3436  12AE                     l2177:
  3437  12AE  01A4               	clrf	___awdiv@counter
  3438  12AF  0AA4               	incf	___awdiv@counter,f
  3439  12B0  2ABC               	goto	l2183
  3440  12B1                     l2179:
  3441  12B1  3001               	movlw	1
  3442  12B2                     u2375:
  3443  12B2  1003               	clrc
  3444  12B3  0DA0               	rlf	___awdiv@divisor,f
  3445  12B4  0DA1               	rlf	___awdiv@divisor+1,f
  3446  12B5  3EFF               	addlw	-1
  3447  12B6  1D03               	skipz
  3448  12B7  2AB2               	goto	u2375
  3449  12B8                     l2181:
  3450  12B8  3001               	movlw	1
  3451  12B9  00F9               	movwf	??___awdiv
  3452  12BA  0879               	movf	??___awdiv,w
  3453  12BB  07A4               	addwf	___awdiv@counter,f
  3454  12BC                     l2183:
  3455  12BC  1FA1               	btfss	___awdiv@divisor+1,7
  3456  12BD  2ABF               	goto	u2381
  3457  12BE  2AC0               	goto	u2380
  3458  12BF                     u2381:
  3459  12BF  2AB1               	goto	l2179
  3460  12C0                     u2380:
  3461  12C0                     l2185:
  3462  12C0  3001               	movlw	1
  3463  12C1                     u2395:
  3464  12C1  1003               	clrc
  3465  12C2  0DA6               	rlf	___awdiv@quotient,f
  3466  12C3  0DA7               	rlf	___awdiv@quotient+1,f
  3467  12C4  3EFF               	addlw	-1
  3468  12C5  1D03               	skipz
  3469  12C6  2AC1               	goto	u2395
  3470  12C7  0821               	movf	___awdiv@divisor+1,w
  3471  12C8  0223               	subwf	___awdiv@dividend+1,w
  3472  12C9  1D03               	skipz
  3473  12CA  2ACD               	goto	u2405
  3474  12CB  0820               	movf	___awdiv@divisor,w
  3475  12CC  0222               	subwf	___awdiv@dividend,w
  3476  12CD                     u2405:
  3477  12CD  1C03               	skipc
  3478  12CE  2AD0               	goto	u2401
  3479  12CF  2AD1               	goto	u2400
  3480  12D0                     u2401:
  3481  12D0  2AD8               	goto	l2191
  3482  12D1                     u2400:
  3483  12D1                     l2187:
  3484  12D1  0820               	movf	___awdiv@divisor,w
  3485  12D2  02A2               	subwf	___awdiv@dividend,f
  3486  12D3  0821               	movf	___awdiv@divisor+1,w
  3487  12D4  1C03               	skipc
  3488  12D5  03A3               	decf	___awdiv@dividend+1,f
  3489  12D6  02A3               	subwf	___awdiv@dividend+1,f
  3490  12D7                     l2189:
  3491  12D7  1426               	bsf	___awdiv@quotient,0
  3492  12D8                     l2191:
  3493  12D8  3001               	movlw	1
  3494  12D9                     u2415:
  3495  12D9  1003               	clrc
  3496  12DA  0CA1               	rrf	___awdiv@divisor+1,f
  3497  12DB  0CA0               	rrf	___awdiv@divisor,f
  3498  12DC  3EFF               	addlw	-1
  3499  12DD  1D03               	skipz
  3500  12DE  2AD9               	goto	u2415
  3501  12DF                     l2193:
  3502  12DF  3001               	movlw	1
  3503  12E0  02A4               	subwf	___awdiv@counter,f
  3504  12E1  1D03               	btfss	3,2
  3505  12E2  2AE4               	goto	u2421
  3506  12E3  2AE5               	goto	u2420
  3507  12E4                     u2421:
  3508  12E4  2AC0               	goto	l2185
  3509  12E5                     u2420:
  3510  12E5                     l2195:
  3511  12E5  0825               	movf	___awdiv@sign,w
  3512  12E6  1903               	btfsc	3,2
  3513  12E7  2AE9               	goto	u2431
  3514  12E8  2AEA               	goto	u2430
  3515  12E9                     u2431:
  3516  12E9  2AEF               	goto	l2199
  3517  12EA                     u2430:
  3518  12EA                     l2197:
  3519  12EA  09A6               	comf	___awdiv@quotient,f
  3520  12EB  09A7               	comf	___awdiv@quotient+1,f
  3521  12EC  0AA6               	incf	___awdiv@quotient,f
  3522  12ED  1903               	skipnz
  3523  12EE  0AA7               	incf	___awdiv@quotient+1,f
  3524  12EF                     l2199:
  3525  12EF  0827               	movf	___awdiv@quotient+1,w
  3526  12F0  00A1               	movwf	?___awdiv+1
  3527  12F1  0826               	movf	___awdiv@quotient,w
  3528  12F2  00A0               	movwf	?___awdiv
  3529  12F3                     l608:
  3530  12F3  0008               	return
  3531  12F4                     __end_of___awdiv:
  3532                           
  3533                           	psect	text5
  3534  1DB4                     __ptext5:	
  3535 ;; *************** function _isdigit *****************
  3536 ;; Defined at:
  3537 ;;		line 8 in file "D:\Microchip\xc8\v2.31\pic\sources\c90\common\isdigit.c"
  3538 ;; Parameters:    Size  Location     Type
  3539 ;;  c               1    wreg     unsigned char 
  3540 ;; Auto vars:     Size  Location     Type
  3541 ;;  c               1    3[COMMON] unsigned char 
  3542 ;; Return value:  Size  Location     Type
  3543 ;;		None               void
  3544 ;; Registers used:
  3545 ;;		wreg, status,2, status,0
  3546 ;; Tracked objects:
  3547 ;;		On entry : 0/0
  3548 ;;		On exit  : 0/0
  3549 ;;		Unchanged: 0/0
  3550 ;; Data sizes:     COMMON   BANK0   BANK1   BANK3   BANK2
  3551 ;;      Params:         0       0       0       0       0
  3552 ;;      Locals:         2       0       0       0       0
  3553 ;;      Temps:          0       0       0       0       0
  3554 ;;      Totals:         2       0       0       0       0
  3555 ;;Total ram usage:        2 bytes
  3556 ;; Hardware stack levels used:    1
  3557 ;; Hardware stack levels required when called:    1
  3558 ;; This function calls:
  3559 ;;		Nothing
  3560 ;; This function is called by:
  3561 ;;		_sprintf
  3562 ;; This function uses a non-reentrant model
  3563 ;;
  3564                           
  3565                           
  3566                           ;psect for function _isdigit
  3567  1DB4                     _isdigit:
  3568                           
  3569                           ;incstack = 0
  3570                           ; Regs used in _isdigit: [wreg+status,2+status,0]
  3571                           ;isdigit@c stored from wreg
  3572  1DB4  00F3               	movwf	isdigit@c
  3573  1DB5                     l2539:
  3574  1DB5  01F2               	clrf	_isdigit$938
  3575  1DB6                     l2541:
  3576  1DB6  303A               	movlw	58
  3577  1DB7  0273               	subwf	isdigit@c,w
  3578  1DB8  1803               	skipnc
  3579  1DB9  2DBB               	goto	u3121
  3580  1DBA  2DBC               	goto	u3120
  3581  1DBB                     u3121:
  3582  1DBB  2DC4               	goto	l2547
  3583  1DBC                     u3120:
  3584  1DBC                     l2543:
  3585  1DBC  3030               	movlw	48
  3586  1DBD  0273               	subwf	isdigit@c,w
  3587  1DBE  1C03               	skipc
  3588  1DBF  2DC1               	goto	u3131
  3589  1DC0  2DC2               	goto	u3130
  3590  1DC1                     u3131:
  3591  1DC1  2DC4               	goto	l2547
  3592  1DC2                     u3130:
  3593  1DC2                     l2545:
  3594  1DC2  01F2               	clrf	_isdigit$938
  3595  1DC3  0AF2               	incf	_isdigit$938,f
  3596  1DC4                     l2547:
  3597  1DC4  0C72               	rrf	_isdigit$938,w
  3598  1DC5                     l887:
  3599  1DC5  0008               	return
  3600  1DC6                     __end_of_isdigit:
  3601                           
  3602                           	psect	text6
  3603  08B4                     __ptext6:	
  3604 ;; *************** function _fround *****************
  3605 ;; Defined at:
  3606 ;;		line 417 in file "D:\Microchip\xc8\v2.31\pic\sources\c90\common\doprnt.c"
  3607 ;; Parameters:    Size  Location     Type
  3608 ;;  prec            1    wreg     unsigned char 
  3609 ;; Auto vars:     Size  Location     Type
  3610 ;;  prec            1   42[BANK0 ] unsigned char 
  3611 ;; Return value:  Size  Location     Type
  3612 ;;                  3   27[BANK0 ] unsigned char 
  3613 ;; Registers used:
  3614 ;;		wreg, fsr0l, fsr0h, status,2, status,0, pclath, cstack
  3615 ;; Tracked objects:
  3616 ;;		On entry : 0/0
  3617 ;;		On exit  : 0/0
  3618 ;;		Unchanged: 0/0
  3619 ;; Data sizes:     COMMON   BANK0   BANK1   BANK3   BANK2
  3620 ;;      Params:         0       3       0       0       0
  3621 ;;      Locals:         0       7       0       0       0
  3622 ;;      Temps:          0       6       0       0       0
  3623 ;;      Totals:         0      16       0       0       0
  3624 ;;Total ram usage:       16 bytes
  3625 ;; Hardware stack levels used:    1
  3626 ;; Hardware stack levels required when called:    3
  3627 ;; This function calls:
  3628 ;;		___bmul
  3629 ;;		___ftmul
  3630 ;;		___lwdiv
  3631 ;;		___lwmod
  3632 ;; This function is called by:
  3633 ;;		_sprintf
  3634 ;; This function uses a non-reentrant model
  3635 ;;
  3636                           
  3637                           
  3638                           ;psect for function _fround
  3639  08B4                     _fround:
  3640                           
  3641                           ;incstack = 0
  3642                           ; Regs used in _fround: [wreg-fsr0h+status,2+status,0+pclath+cstack]
  3643                           ;fround@prec stored from wreg
  3644  08B4  1283               	bcf	3,5	;RP0=0, select bank0
  3645  08B5  1303               	bcf	3,6	;RP1=0, select bank0
  3646  08B6  00CA               	movwf	fround@prec
  3647  08B7                     l3505:
  3648                           
  3649                           ;D:\Microchip\xc8\v2.31\pic\sources\c90\common\doprnt.c: 417: fround(unsigned char prec)
      +                          ;D:\Microchip\xc8\v2.31\pic\sources\c90\common\doprnt.c: 418: {;D:\Microchip\xc8\v2.31\p
      +                          ic\sources\c90\common\doprnt.c: 421:  if(prec>=110)
  3650  08B7  306E               	movlw	110
  3651  08B8  024A               	subwf	fround@prec,w
  3652  08B9  1C03               	skipc
  3653  08BA  28BC               	goto	u4971
  3654  08BB  28BD               	goto	u4970
  3655  08BC                     u4971:
  3656  08BC  299A               	goto	l3515
  3657  08BD                     u4970:
  3658  08BD                     l3507:
  3659                           
  3660                           ;D:\Microchip\xc8\v2.31\pic\sources\c90\common\doprnt.c: 422:   return 0.5 * _npowers_[p
      +                          rec/100U+18U] * _npowers_[(prec%100U)/10U+9U] * _npowers_[prec%10U];
  3661  08BD  3003               	movlw	3
  3662  08BE  00BE               	movwf	??_fround
  3663  08BF  083E               	movf	??_fround,w
  3664  08C0  00A8               	movwf	___bmul@multiplicand
  3665  08C1  084A               	movf	fround@prec,w
  3666  08C2  00BF               	movwf	??_fround+1
  3667  08C3  01C0               	clrf	??_fround+2
  3668  08C4  083F               	movf	??_fround+1,w
  3669  08C5  00F4               	movwf	___lwmod@dividend
  3670  08C6  0840               	movf	??_fround+2,w
  3671  08C7  00F5               	movwf	___lwmod@dividend+1
  3672  08C8  3064               	movlw	100
  3673  08C9  00F2               	movwf	___lwmod@divisor
  3674  08CA  3000               	movlw	0
  3675  08CB  00F3               	movwf	___lwmod@divisor+1
  3676  08CC  160A  158A  273A  120A  158A  	fcall	___lwmod
  3677  08D1  0873               	movf	?___lwmod+1,w
  3678  08D2  1283               	bcf	3,5	;RP0=0, select bank0
  3679  08D3  1303               	bcf	3,6	;RP1=0, select bank0
  3680  08D4  00A3               	movwf	___lwdiv@dividend+1
  3681  08D5  0872               	movf	?___lwmod,w
  3682  08D6  00A2               	movwf	___lwdiv@dividend
  3683  08D7  300A               	movlw	10
  3684  08D8  00A0               	movwf	___lwdiv@divisor
  3685  08D9  3000               	movlw	0
  3686  08DA  00A1               	movwf	___lwdiv@divisor+1
  3687  08DB  160A  158A  27BA  120A  158A  	fcall	___lwdiv
  3688  08E0  1283               	bcf	3,5	;RP0=0, select bank0
  3689  08E1  1303               	bcf	3,6	;RP1=0, select bank0
  3690  08E2  0820               	movf	?___lwdiv,w
  3691  08E3  120A  158A  2001  120A  158A  	fcall	___bmul
  3692  08E8  3E43               	addlw	low (((__npowers_-__stringbase)| (0+32768)+27))
  3693  08E9  0084               	movwf	4
  3694  08EA  160A  118A  200A  120A  158A  	fcall	stringdir
  3695  08EF  1283               	bcf	3,5	;RP0=0, select bank0
  3696  08F0  1303               	bcf	3,6	;RP1=0, select bank0
  3697  08F1  00AB               	movwf	___ftmul@f1
  3698  08F2  160A  118A  200A  120A  158A  	fcall	stringdir
  3699  08F7  00AC               	movwf	___ftmul@f1+1
  3700  08F8  160A  118A  200A  120A  158A  	fcall	stringdir
  3701  08FD  00AD               	movwf	___ftmul@f1+2
  3702  08FE  3003               	movlw	3
  3703  08FF  00C1               	movwf	??_fround+3
  3704  0900  0841               	movf	??_fround+3,w
  3705  0901  00A8               	movwf	___bmul@multiplicand
  3706  0902  084A               	movf	fround@prec,w
  3707  0903  00C2               	movwf	??_fround+4
  3708  0904  01C3               	clrf	??_fround+5
  3709  0905  0842               	movf	??_fround+4,w
  3710  0906  00A2               	movwf	___lwdiv@dividend
  3711  0907  0843               	movf	??_fround+5,w
  3712  0908  00A3               	movwf	___lwdiv@dividend+1
  3713  0909  3064               	movlw	100
  3714  090A  00A0               	movwf	___lwdiv@divisor
  3715  090B  3000               	movlw	0
  3716  090C  00A1               	movwf	___lwdiv@divisor+1
  3717  090D  160A  158A  27BA  120A  158A  	fcall	___lwdiv
  3718  0912  1283               	bcf	3,5	;RP0=0, select bank0
  3719  0913  1303               	bcf	3,6	;RP1=0, select bank0
  3720  0914  0820               	movf	?___lwdiv,w
  3721  0915  120A  158A  2001  120A  158A  	fcall	___bmul
  3722  091A  3E5E               	addlw	low (((__npowers_-__stringbase)| (0+32768)+54))
  3723  091B  0084               	movwf	4
  3724  091C  160A  118A  200A  120A  158A  	fcall	stringdir
  3725  0921  1283               	bcf	3,5	;RP0=0, select bank0
  3726  0922  1303               	bcf	3,6	;RP1=0, select bank0
  3727  0923  00AE               	movwf	___ftmul@f2
  3728  0924  160A  118A  200A  120A  158A  	fcall	stringdir
  3729  0929  00AF               	movwf	___ftmul@f2+1
  3730  092A  160A  118A  200A  120A  158A  	fcall	stringdir
  3731  092F  00B0               	movwf	___ftmul@f2+2
  3732  0930  160A  118A  24B9  120A  158A  	fcall	___ftmul
  3733  0935  1283               	bcf	3,5	;RP0=0, select bank0
  3734  0936  1303               	bcf	3,6	;RP1=0, select bank0
  3735  0937  082B               	movf	?___ftmul,w
  3736  0938  00C7               	movwf	_fround$1129
  3737  0939  082C               	movf	?___ftmul+1,w
  3738  093A  00C8               	movwf	_fround$1129+1
  3739  093B  082D               	movf	?___ftmul+2,w
  3740  093C  00C9               	movwf	_fround$1129+2
  3741                           
  3742                           ;D:\Microchip\xc8\v2.31\pic\sources\c90\common\doprnt.c: 422:   return 0.5 * _npowers_[p
      +                          rec/100U+18U] * _npowers_[(prec%100U)/10U+9U] * _npowers_[prec%10U];
  3743  093D  3003               	movlw	3
  3744  093E  00BE               	movwf	??_fround
  3745  093F  083E               	movf	??_fround,w
  3746  0940  00A8               	movwf	___bmul@multiplicand
  3747  0941  084A               	movf	fround@prec,w
  3748  0942  00BF               	movwf	??_fround+1
  3749  0943  01C0               	clrf	??_fround+2
  3750  0944  083F               	movf	??_fround+1,w
  3751  0945  00F4               	movwf	___lwmod@dividend
  3752  0946  0840               	movf	??_fround+2,w
  3753  0947  00F5               	movwf	___lwmod@dividend+1
  3754  0948  300A               	movlw	10
  3755  0949  00F2               	movwf	___lwmod@divisor
  3756  094A  3000               	movlw	0
  3757  094B  00F3               	movwf	___lwmod@divisor+1
  3758  094C  160A  158A  273A  120A  158A  	fcall	___lwmod
  3759  0951  0872               	movf	?___lwmod,w
  3760  0952  120A  158A  2001  120A  158A  	fcall	___bmul
  3761  0957  3E28               	addlw	low ((__npowers_-__stringbase)| (0+32768))
  3762  0958  0084               	movwf	4
  3763  0959  160A  118A  200A  120A  158A  	fcall	stringdir
  3764  095E  1283               	bcf	3,5	;RP0=0, select bank0
  3765  095F  1303               	bcf	3,6	;RP1=0, select bank0
  3766  0960  00AB               	movwf	___ftmul@f1
  3767  0961  160A  118A  200A  120A  158A  	fcall	stringdir
  3768  0966  00AC               	movwf	___ftmul@f1+1
  3769  0967  160A  118A  200A  120A  158A  	fcall	stringdir
  3770  096C  00AD               	movwf	___ftmul@f1+2
  3771  096D  0847               	movf	_fround$1129,w
  3772  096E  00AE               	movwf	___ftmul@f2
  3773  096F  0848               	movf	_fround$1129+1,w
  3774  0970  00AF               	movwf	___ftmul@f2+1
  3775  0971  0849               	movf	_fround$1129+2,w
  3776  0972  00B0               	movwf	___ftmul@f2+2
  3777  0973  160A  118A  24B9  120A  158A  	fcall	___ftmul
  3778  0978  1283               	bcf	3,5	;RP0=0, select bank0
  3779  0979  1303               	bcf	3,6	;RP1=0, select bank0
  3780  097A  082B               	movf	?___ftmul,w
  3781  097B  00C4               	movwf	_fround$1130
  3782  097C  082C               	movf	?___ftmul+1,w
  3783  097D  00C5               	movwf	_fround$1130+1
  3784  097E  082D               	movf	?___ftmul+2,w
  3785  097F  00C6               	movwf	_fround$1130+2
  3786  0980                     l3509:
  3787                           
  3788                           ;D:\Microchip\xc8\v2.31\pic\sources\c90\common\doprnt.c: 422:   return 0.5 * _npowers_[p
      +                          rec/100U+18U] * _npowers_[(prec%100U)/10U+9U] * _npowers_[prec%10U];
  3789  0980  3000               	movlw	0
  3790  0981  00AB               	movwf	___ftmul@f1
  3791  0982  3000               	movlw	0
  3792  0983  00AC               	movwf	___ftmul@f1+1
  3793  0984  303F               	movlw	63
  3794  0985  00AD               	movwf	___ftmul@f1+2
  3795  0986  0844               	movf	_fround$1130,w
  3796  0987  00AE               	movwf	___ftmul@f2
  3797  0988  0845               	movf	_fround$1130+1,w
  3798  0989  00AF               	movwf	___ftmul@f2+1
  3799  098A  0846               	movf	_fround$1130+2,w
  3800  098B  00B0               	movwf	___ftmul@f2+2
  3801  098C  160A  118A  24B9  120A  158A  	fcall	___ftmul
  3802  0991  1283               	bcf	3,5	;RP0=0, select bank0
  3803  0992  1303               	bcf	3,6	;RP1=0, select bank0
  3804  0993  082B               	movf	?___ftmul,w
  3805  0994  00BB               	movwf	?_fround
  3806  0995  082C               	movf	?___ftmul+1,w
  3807  0996  00BC               	movwf	?_fround+1
  3808  0997  082D               	movf	?___ftmul+2,w
  3809  0998  00BD               	movwf	?_fround+2
  3810  0999  2A5C               	goto	l322
  3811  099A                     l3515:
  3812  099A  300B               	movlw	11
  3813  099B  024A               	subwf	fround@prec,w
  3814  099C  1C03               	skipc
  3815  099D  299F               	goto	u4981
  3816  099E  29A0               	goto	u4980
  3817  099F                     u4981:
  3818  099F  2A29               	goto	l3523
  3819  09A0                     u4980:
  3820  09A0                     l3517:
  3821                           
  3822                           ;D:\Microchip\xc8\v2.31\pic\sources\c90\common\doprnt.c: 424:   return 0.5 * _npowers_[p
      +                          rec/10U+9U] * _npowers_[prec%10U];
  3823  09A0  3003               	movlw	3
  3824  09A1  00BE               	movwf	??_fround
  3825  09A2  083E               	movf	??_fround,w
  3826  09A3  00A8               	movwf	___bmul@multiplicand
  3827  09A4  084A               	movf	fround@prec,w
  3828  09A5  00BF               	movwf	??_fround+1
  3829  09A6  01C0               	clrf	??_fround+2
  3830  09A7  083F               	movf	??_fround+1,w
  3831  09A8  00F4               	movwf	___lwmod@dividend
  3832  09A9  0840               	movf	??_fround+2,w
  3833  09AA  00F5               	movwf	___lwmod@dividend+1
  3834  09AB  300A               	movlw	10
  3835  09AC  00F2               	movwf	___lwmod@divisor
  3836  09AD  3000               	movlw	0
  3837  09AE  00F3               	movwf	___lwmod@divisor+1
  3838  09AF  160A  158A  273A  120A  158A  	fcall	___lwmod
  3839  09B4  0872               	movf	?___lwmod,w
  3840  09B5  120A  158A  2001  120A  158A  	fcall	___bmul
  3841  09BA  3E28               	addlw	low ((__npowers_-__stringbase)| (0+32768))
  3842  09BB  0084               	movwf	4
  3843  09BC  160A  118A  200A  120A  158A  	fcall	stringdir
  3844  09C1  1283               	bcf	3,5	;RP0=0, select bank0
  3845  09C2  1303               	bcf	3,6	;RP1=0, select bank0
  3846  09C3  00AB               	movwf	___ftmul@f1
  3847  09C4  160A  118A  200A  120A  158A  	fcall	stringdir
  3848  09C9  00AC               	movwf	___ftmul@f1+1
  3849  09CA  160A  118A  200A  120A  158A  	fcall	stringdir
  3850  09CF  00AD               	movwf	___ftmul@f1+2
  3851  09D0  3003               	movlw	3
  3852  09D1  00C1               	movwf	??_fround+3
  3853  09D2  0841               	movf	??_fround+3,w
  3854  09D3  00A8               	movwf	___bmul@multiplicand
  3855  09D4  084A               	movf	fround@prec,w
  3856  09D5  00C2               	movwf	??_fround+4
  3857  09D6  01C3               	clrf	??_fround+5
  3858  09D7  0842               	movf	??_fround+4,w
  3859  09D8  00A2               	movwf	___lwdiv@dividend
  3860  09D9  0843               	movf	??_fround+5,w
  3861  09DA  00A3               	movwf	___lwdiv@dividend+1
  3862  09DB  300A               	movlw	10
  3863  09DC  00A0               	movwf	___lwdiv@divisor
  3864  09DD  3000               	movlw	0
  3865  09DE  00A1               	movwf	___lwdiv@divisor+1
  3866  09DF  160A  158A  27BA  120A  158A  	fcall	___lwdiv
  3867  09E4  1283               	bcf	3,5	;RP0=0, select bank0
  3868  09E5  1303               	bcf	3,6	;RP1=0, select bank0
  3869  09E6  0820               	movf	?___lwdiv,w
  3870  09E7  120A  158A  2001  120A  158A  	fcall	___bmul
  3871  09EC  3E43               	addlw	low (((__npowers_-__stringbase)| (0+32768)+27))
  3872  09ED  0084               	movwf	4
  3873  09EE  160A  118A  200A  120A  158A  	fcall	stringdir
  3874  09F3  1283               	bcf	3,5	;RP0=0, select bank0
  3875  09F4  1303               	bcf	3,6	;RP1=0, select bank0
  3876  09F5  00AE               	movwf	___ftmul@f2
  3877  09F6  160A  118A  200A  120A  158A  	fcall	stringdir
  3878  09FB  00AF               	movwf	___ftmul@f2+1
  3879  09FC  160A  118A  200A  120A  158A  	fcall	stringdir
  3880  0A01  00B0               	movwf	___ftmul@f2+2
  3881  0A02  160A  118A  24B9  120A  158A  	fcall	___ftmul
  3882  0A07  1283               	bcf	3,5	;RP0=0, select bank0
  3883  0A08  1303               	bcf	3,6	;RP1=0, select bank0
  3884  0A09  082B               	movf	?___ftmul,w
  3885  0A0A  00C7               	movwf	_fround$1129
  3886  0A0B  082C               	movf	?___ftmul+1,w
  3887  0A0C  00C8               	movwf	_fround$1129+1
  3888  0A0D  082D               	movf	?___ftmul+2,w
  3889  0A0E  00C9               	movwf	_fround$1129+2
  3890  0A0F                     l3519:
  3891                           
  3892                           ;D:\Microchip\xc8\v2.31\pic\sources\c90\common\doprnt.c: 424:   return 0.5 * _npowers_[p
      +                          rec/10U+9U] * _npowers_[prec%10U];
  3893  0A0F  3000               	movlw	0
  3894  0A10  00AB               	movwf	___ftmul@f1
  3895  0A11  3000               	movlw	0
  3896  0A12  00AC               	movwf	___ftmul@f1+1
  3897  0A13  303F               	movlw	63
  3898  0A14  00AD               	movwf	___ftmul@f1+2
  3899  0A15  0847               	movf	_fround$1129,w
  3900  0A16  00AE               	movwf	___ftmul@f2
  3901  0A17  0848               	movf	_fround$1129+1,w
  3902  0A18  00AF               	movwf	___ftmul@f2+1
  3903  0A19  0849               	movf	_fround$1129+2,w
  3904  0A1A  00B0               	movwf	___ftmul@f2+2
  3905  0A1B  160A  118A  24B9  120A  158A  	fcall	___ftmul
  3906  0A20  1283               	bcf	3,5	;RP0=0, select bank0
  3907  0A21  1303               	bcf	3,6	;RP1=0, select bank0
  3908  0A22  082B               	movf	?___ftmul,w
  3909  0A23  00BB               	movwf	?_fround
  3910  0A24  082C               	movf	?___ftmul+1,w
  3911  0A25  00BC               	movwf	?_fround+1
  3912  0A26  082D               	movf	?___ftmul+2,w
  3913  0A27  00BD               	movwf	?_fround+2
  3914  0A28  2A5C               	goto	l322
  3915  0A29                     l3523:
  3916                           
  3917                           ;D:\Microchip\xc8\v2.31\pic\sources\c90\common\doprnt.c: 425:  return 0.5 * _npowers_[pr
      +                          ec];
  3918  0A29  3000               	movlw	0
  3919  0A2A  00AB               	movwf	___ftmul@f1
  3920  0A2B  3000               	movlw	0
  3921  0A2C  00AC               	movwf	___ftmul@f1+1
  3922  0A2D  303F               	movlw	63
  3923  0A2E  00AD               	movwf	___ftmul@f1+2
  3924  0A2F  3003               	movlw	3
  3925  0A30  00BE               	movwf	??_fround
  3926  0A31  083E               	movf	??_fround,w
  3927  0A32  00A8               	movwf	___bmul@multiplicand
  3928  0A33  084A               	movf	fround@prec,w
  3929  0A34  120A  158A  2001  120A  158A  	fcall	___bmul
  3930  0A39  3E28               	addlw	low ((__npowers_-__stringbase)| (0+32768))
  3931  0A3A  0084               	movwf	4
  3932  0A3B  160A  118A  200A  120A  158A  	fcall	stringdir
  3933  0A40  1283               	bcf	3,5	;RP0=0, select bank0
  3934  0A41  1303               	bcf	3,6	;RP1=0, select bank0
  3935  0A42  00AE               	movwf	___ftmul@f2
  3936  0A43  160A  118A  200A  120A  158A  	fcall	stringdir
  3937  0A48  00AF               	movwf	___ftmul@f2+1
  3938  0A49  160A  118A  200A  120A  158A  	fcall	stringdir
  3939  0A4E  00B0               	movwf	___ftmul@f2+2
  3940  0A4F  160A  118A  24B9  120A  158A  	fcall	___ftmul
  3941  0A54  1283               	bcf	3,5	;RP0=0, select bank0
  3942  0A55  1303               	bcf	3,6	;RP1=0, select bank0
  3943  0A56  082B               	movf	?___ftmul,w
  3944  0A57  00BB               	movwf	?_fround
  3945  0A58  082C               	movf	?___ftmul+1,w
  3946  0A59  00BC               	movwf	?_fround+1
  3947  0A5A  082D               	movf	?___ftmul+2,w
  3948  0A5B  00BD               	movwf	?_fround+2
  3949  0A5C                     l322:
  3950  0A5C  0008               	return
  3951  0A5D                     __end_of_fround:
  3952                           
  3953                           	psect	text7
  3954  1F3A                     __ptext7:	
  3955 ;; *************** function ___lwmod *****************
  3956 ;; Defined at:
  3957 ;;		line 5 in file "D:\Microchip\xc8\v2.31\pic\sources\c90\common\lwmod.c"
  3958 ;; Parameters:    Size  Location     Type
  3959 ;;  divisor         2    2[COMMON] unsigned int 
  3960 ;;  dividend        2    4[COMMON] unsigned int 
  3961 ;; Auto vars:     Size  Location     Type
  3962 ;;  counter         1    7[COMMON] unsigned char 
  3963 ;; Return value:  Size  Location     Type
  3964 ;;                  2    2[COMMON] unsigned int 
  3965 ;; Registers used:
  3966 ;;		wreg, status,2, status,0
  3967 ;; Tracked objects:
  3968 ;;		On entry : 0/0
  3969 ;;		On exit  : 0/0
  3970 ;;		Unchanged: 0/0
  3971 ;; Data sizes:     COMMON   BANK0   BANK1   BANK3   BANK2
  3972 ;;      Params:         4       0       0       0       0
  3973 ;;      Locals:         1       0       0       0       0
  3974 ;;      Temps:          1       0       0       0       0
  3975 ;;      Totals:         6       0       0       0       0
  3976 ;;Total ram usage:        6 bytes
  3977 ;; Hardware stack levels used:    1
  3978 ;; Hardware stack levels required when called:    1
  3979 ;; This function calls:
  3980 ;;		Nothing
  3981 ;; This function is called by:
  3982 ;;		_fround
  3983 ;; This function uses a non-reentrant model
  3984 ;;
  3985                           
  3986                           
  3987                           ;psect for function ___lwmod
  3988  1F3A                     ___lwmod:
  3989  1F3A                     l2387:	
  3990                           ;incstack = 0
  3991                           ; Regs used in ___lwmod: [wreg+status,2+status,0]
  3992                           
  3993  1F3A  0872               	movf	___lwmod@divisor,w
  3994  1F3B  0473               	iorwf	___lwmod@divisor+1,w
  3995  1F3C  1903               	btfsc	3,2
  3996  1F3D  2F3F               	goto	u2981
  3997  1F3E  2F40               	goto	u2980
  3998  1F3F                     u2981:
  3999  1F3F  2F6F               	goto	l2405
  4000  1F40                     u2980:
  4001  1F40                     l2389:
  4002  1F40  01F7               	clrf	___lwmod@counter
  4003  1F41  0AF7               	incf	___lwmod@counter,f
  4004  1F42  2F4E               	goto	l2395
  4005  1F43                     l2391:
  4006  1F43  3001               	movlw	1
  4007  1F44                     u2995:
  4008  1F44  1003               	clrc
  4009  1F45  0DF2               	rlf	___lwmod@divisor,f
  4010  1F46  0DF3               	rlf	___lwmod@divisor+1,f
  4011  1F47  3EFF               	addlw	-1
  4012  1F48  1D03               	skipz
  4013  1F49  2F44               	goto	u2995
  4014  1F4A                     l2393:
  4015  1F4A  3001               	movlw	1
  4016  1F4B  00F6               	movwf	??___lwmod
  4017  1F4C  0876               	movf	??___lwmod,w
  4018  1F4D  07F7               	addwf	___lwmod@counter,f
  4019  1F4E                     l2395:
  4020  1F4E  1FF3               	btfss	___lwmod@divisor+1,7
  4021  1F4F  2F51               	goto	u3001
  4022  1F50  2F52               	goto	u3000
  4023  1F51                     u3001:
  4024  1F51  2F43               	goto	l2391
  4025  1F52                     u3000:
  4026  1F52                     l2397:
  4027  1F52  0873               	movf	___lwmod@divisor+1,w
  4028  1F53  0275               	subwf	___lwmod@dividend+1,w
  4029  1F54  1D03               	skipz
  4030  1F55  2F58               	goto	u3015
  4031  1F56  0872               	movf	___lwmod@divisor,w
  4032  1F57  0274               	subwf	___lwmod@dividend,w
  4033  1F58                     u3015:
  4034  1F58  1C03               	skipc
  4035  1F59  2F5B               	goto	u3011
  4036  1F5A  2F5C               	goto	u3010
  4037  1F5B                     u3011:
  4038  1F5B  2F62               	goto	l2401
  4039  1F5C                     u3010:
  4040  1F5C                     l2399:
  4041  1F5C  0872               	movf	___lwmod@divisor,w
  4042  1F5D  02F4               	subwf	___lwmod@dividend,f
  4043  1F5E  0873               	movf	___lwmod@divisor+1,w
  4044  1F5F  1C03               	skipc
  4045  1F60  03F5               	decf	___lwmod@dividend+1,f
  4046  1F61  02F5               	subwf	___lwmod@dividend+1,f
  4047  1F62                     l2401:
  4048  1F62  3001               	movlw	1
  4049  1F63                     u3025:
  4050  1F63  1003               	clrc
  4051  1F64  0CF3               	rrf	___lwmod@divisor+1,f
  4052  1F65  0CF2               	rrf	___lwmod@divisor,f
  4053  1F66  3EFF               	addlw	-1
  4054  1F67  1D03               	skipz
  4055  1F68  2F63               	goto	u3025
  4056  1F69                     l2403:
  4057  1F69  3001               	movlw	1
  4058  1F6A  02F7               	subwf	___lwmod@counter,f
  4059  1F6B  1D03               	btfss	3,2
  4060  1F6C  2F6E               	goto	u3031
  4061  1F6D  2F6F               	goto	u3030
  4062  1F6E                     u3031:
  4063  1F6E  2F52               	goto	l2397
  4064  1F6F                     u3030:
  4065  1F6F                     l2405:
  4066  1F6F  0875               	movf	___lwmod@dividend+1,w
  4067  1F70  00F3               	movwf	?___lwmod+1
  4068  1F71  0874               	movf	___lwmod@dividend,w
  4069  1F72  00F2               	movwf	?___lwmod
  4070  1F73                     l877:
  4071  1F73  0008               	return
  4072  1F74                     __end_of___lwmod:
  4073                           
  4074                           	psect	text8
  4075  1FBA                     __ptext8:	
  4076 ;; *************** function ___lwdiv *****************
  4077 ;; Defined at:
  4078 ;;		line 5 in file "D:\Microchip\xc8\v2.31\pic\sources\c90\common\lwdiv.c"
  4079 ;; Parameters:    Size  Location     Type
  4080 ;;  divisor         2    0[BANK0 ] unsigned int 
  4081 ;;  dividend        2    2[BANK0 ] unsigned int 
  4082 ;; Auto vars:     Size  Location     Type
  4083 ;;  quotient        2    5[BANK0 ] unsigned int 
  4084 ;;  counter         1    4[BANK0 ] unsigned char 
  4085 ;; Return value:  Size  Location     Type
  4086 ;;                  2    0[BANK0 ] unsigned int 
  4087 ;; Registers used:
  4088 ;;		wreg, status,2, status,0
  4089 ;; Tracked objects:
  4090 ;;		On entry : 0/0
  4091 ;;		On exit  : 0/0
  4092 ;;		Unchanged: 0/0
  4093 ;; Data sizes:     COMMON   BANK0   BANK1   BANK3   BANK2
  4094 ;;      Params:         0       4       0       0       0
  4095 ;;      Locals:         0       3       0       0       0
  4096 ;;      Temps:          1       0       0       0       0
  4097 ;;      Totals:         1       7       0       0       0
  4098 ;;Total ram usage:        8 bytes
  4099 ;; Hardware stack levels used:    1
  4100 ;; Hardware stack levels required when called:    1
  4101 ;; This function calls:
  4102 ;;		Nothing
  4103 ;; This function is called by:
  4104 ;;		_fround
  4105 ;; This function uses a non-reentrant model
  4106 ;;
  4107                           
  4108                           
  4109                           ;psect for function ___lwdiv
  4110  1FBA                     ___lwdiv:
  4111  1FBA                     l3455:	
  4112                           ;incstack = 0
  4113                           ; Regs used in ___lwdiv: [wreg+status,2+status,0]
  4114                           
  4115  1FBA  1283               	bcf	3,5	;RP0=0, select bank0
  4116  1FBB  1303               	bcf	3,6	;RP1=0, select bank0
  4117  1FBC  01A5               	clrf	___lwdiv@quotient
  4118  1FBD  01A6               	clrf	___lwdiv@quotient+1
  4119  1FBE                     l3457:
  4120  1FBE  0820               	movf	___lwdiv@divisor,w
  4121  1FBF  0421               	iorwf	___lwdiv@divisor+1,w
  4122  1FC0  1903               	btfsc	3,2
  4123  1FC1  2FC3               	goto	u4901
  4124  1FC2  2FC4               	goto	u4900
  4125  1FC3                     u4901:
  4126  1FC3  2FFB               	goto	l3477
  4127  1FC4                     u4900:
  4128  1FC4                     l3459:
  4129  1FC4  01A4               	clrf	___lwdiv@counter
  4130  1FC5  0AA4               	incf	___lwdiv@counter,f
  4131  1FC6  2FD2               	goto	l3465
  4132  1FC7                     l3461:
  4133  1FC7  3001               	movlw	1
  4134  1FC8                     u4915:
  4135  1FC8  1003               	clrc
  4136  1FC9  0DA0               	rlf	___lwdiv@divisor,f
  4137  1FCA  0DA1               	rlf	___lwdiv@divisor+1,f
  4138  1FCB  3EFF               	addlw	-1
  4139  1FCC  1D03               	skipz
  4140  1FCD  2FC8               	goto	u4915
  4141  1FCE                     l3463:
  4142  1FCE  3001               	movlw	1
  4143  1FCF  00F8               	movwf	??___lwdiv
  4144  1FD0  0878               	movf	??___lwdiv,w
  4145  1FD1  07A4               	addwf	___lwdiv@counter,f
  4146  1FD2                     l3465:
  4147  1FD2  1FA1               	btfss	___lwdiv@divisor+1,7
  4148  1FD3  2FD5               	goto	u4921
  4149  1FD4  2FD6               	goto	u4920
  4150  1FD5                     u4921:
  4151  1FD5  2FC7               	goto	l3461
  4152  1FD6                     u4920:
  4153  1FD6                     l3467:
  4154  1FD6  3001               	movlw	1
  4155  1FD7                     u4935:
  4156  1FD7  1003               	clrc
  4157  1FD8  0DA5               	rlf	___lwdiv@quotient,f
  4158  1FD9  0DA6               	rlf	___lwdiv@quotient+1,f
  4159  1FDA  3EFF               	addlw	-1
  4160  1FDB  1D03               	skipz
  4161  1FDC  2FD7               	goto	u4935
  4162  1FDD  0821               	movf	___lwdiv@divisor+1,w
  4163  1FDE  0223               	subwf	___lwdiv@dividend+1,w
  4164  1FDF  1D03               	skipz
  4165  1FE0  2FE3               	goto	u4945
  4166  1FE1  0820               	movf	___lwdiv@divisor,w
  4167  1FE2  0222               	subwf	___lwdiv@dividend,w
  4168  1FE3                     u4945:
  4169  1FE3  1C03               	skipc
  4170  1FE4  2FE6               	goto	u4941
  4171  1FE5  2FE7               	goto	u4940
  4172  1FE6                     u4941:
  4173  1FE6  2FEE               	goto	l3473
  4174  1FE7                     u4940:
  4175  1FE7                     l3469:
  4176  1FE7  0820               	movf	___lwdiv@divisor,w
  4177  1FE8  02A2               	subwf	___lwdiv@dividend,f
  4178  1FE9  0821               	movf	___lwdiv@divisor+1,w
  4179  1FEA  1C03               	skipc
  4180  1FEB  03A3               	decf	___lwdiv@dividend+1,f
  4181  1FEC  02A3               	subwf	___lwdiv@dividend+1,f
  4182  1FED                     l3471:
  4183  1FED  1425               	bsf	___lwdiv@quotient,0
  4184  1FEE                     l3473:
  4185  1FEE  3001               	movlw	1
  4186  1FEF                     u4955:
  4187  1FEF  1003               	clrc
  4188  1FF0  0CA1               	rrf	___lwdiv@divisor+1,f
  4189  1FF1  0CA0               	rrf	___lwdiv@divisor,f
  4190  1FF2  3EFF               	addlw	-1
  4191  1FF3  1D03               	skipz
  4192  1FF4  2FEF               	goto	u4955
  4193  1FF5                     l3475:
  4194  1FF5  3001               	movlw	1
  4195  1FF6  02A4               	subwf	___lwdiv@counter,f
  4196  1FF7  1D03               	btfss	3,2
  4197  1FF8  2FFA               	goto	u4961
  4198  1FF9  2FFB               	goto	u4960
  4199  1FFA                     u4961:
  4200  1FFA  2FD6               	goto	l3467
  4201  1FFB                     u4960:
  4202  1FFB                     l3477:
  4203  1FFB  0826               	movf	___lwdiv@quotient+1,w
  4204  1FFC  00A1               	movwf	?___lwdiv+1
  4205  1FFD  0825               	movf	___lwdiv@quotient,w
  4206  1FFE  00A0               	movwf	?___lwdiv
  4207  1FFF                     l867:
  4208  1FFF  0008               	return
  4209  2000                     __end_of___lwdiv:
  4210                           
  4211                           	psect	text9
  4212  0801                     __ptext9:	
  4213 ;; *************** function ___bmul *****************
  4214 ;; Defined at:
  4215 ;;		line 4 in file "D:\Microchip\xc8\v2.31\pic\sources\c90\common\Umul8.c"
  4216 ;; Parameters:    Size  Location     Type
  4217 ;;  multiplier      1    wreg     unsigned char 
  4218 ;;  multiplicand    1    8[BANK0 ] unsigned char 
  4219 ;; Auto vars:     Size  Location     Type
  4220 ;;  multiplier      1   10[BANK0 ] unsigned char 
  4221 ;;  product         1    9[BANK0 ] unsigned char 
  4222 ;; Return value:  Size  Location     Type
  4223 ;;                  1    wreg      unsigned char 
  4224 ;; Registers used:
  4225 ;;		wreg, status,2, status,0
  4226 ;; Tracked objects:
  4227 ;;		On entry : 0/0
  4228 ;;		On exit  : 0/0
  4229 ;;		Unchanged: 0/0
  4230 ;; Data sizes:     COMMON   BANK0   BANK1   BANK3   BANK2
  4231 ;;      Params:         0       1       0       0       0
  4232 ;;      Locals:         0       2       0       0       0
  4233 ;;      Temps:          1       0       0       0       0
  4234 ;;      Totals:         1       3       0       0       0
  4235 ;;Total ram usage:        4 bytes
  4236 ;; Hardware stack levels used:    1
  4237 ;; Hardware stack levels required when called:    1
  4238 ;; This function calls:
  4239 ;;		Nothing
  4240 ;; This function is called by:
  4241 ;;		_fround
  4242 ;;		_scale
  4243 ;; This function uses a non-reentrant model
  4244 ;;
  4245                           
  4246                           
  4247                           ;psect for function ___bmul
  4248  0801                     ___bmul:
  4249                           
  4250                           ;incstack = 0
  4251                           ; Regs used in ___bmul: [wreg+status,2+status,0]
  4252                           ;___bmul@multiplier stored from wreg
  4253  0801  1283               	bcf	3,5	;RP0=0, select bank0
  4254  0802  1303               	bcf	3,6	;RP1=0, select bank0
  4255  0803  00AA               	movwf	___bmul@multiplier
  4256  0804                     l3321:
  4257  0804  01A9               	clrf	___bmul@product
  4258  0805                     l3323:
  4259  0805  1C2A               	btfss	___bmul@multiplier,0
  4260  0806  2808               	goto	u4501
  4261  0807  2809               	goto	u4500
  4262  0808                     u4501:
  4263  0808  280D               	goto	l3327
  4264  0809                     u4500:
  4265  0809                     l3325:
  4266  0809  0828               	movf	___bmul@multiplicand,w
  4267  080A  00FA               	movwf	??___bmul
  4268  080B  087A               	movf	??___bmul,w
  4269  080C  07A9               	addwf	___bmul@product,f
  4270  080D                     l3327:
  4271  080D  1003               	clrc
  4272  080E  0DA8               	rlf	___bmul@multiplicand,f
  4273  080F                     l3329:
  4274  080F  1003               	clrc
  4275  0810  0CAA               	rrf	___bmul@multiplier,f
  4276  0811  082A               	movf	___bmul@multiplier,w
  4277  0812  1D03               	btfss	3,2
  4278  0813  2815               	goto	u4511
  4279  0814  2816               	goto	u4510
  4280  0815                     u4511:
  4281  0815  2805               	goto	l3323
  4282  0816                     u4510:
  4283  0816                     l3331:
  4284  0816  0829               	movf	___bmul@product,w
  4285  0817                     l451:
  4286  0817  0008               	return
  4287  0818                     __end_of___bmul:
  4288                           
  4289                           	psect	text10
  4290  13FC                     __ptext10:	
  4291 ;; *************** function __tdiv_to_l_ *****************
  4292 ;; Defined at:
  4293 ;;		line 60 in file "D:\Microchip\xc8\v2.31\pic\sources\c90\common\ftdivl.c"
  4294 ;; Parameters:    Size  Location     Type
  4295 ;;  f1              3    2[COMMON] float 
  4296 ;;  f2              3    5[COMMON] float 
  4297 ;; Auto vars:     Size  Location     Type
  4298 ;;  quot            4    4[BANK0 ] unsigned long 
  4299 ;;  exp1            1    9[BANK0 ] unsigned char 
  4300 ;;  cntr            1    8[BANK0 ] unsigned char 
  4301 ;; Return value:  Size  Location     Type
  4302 ;;                  4    2[COMMON] unsigned long 
  4303 ;; Registers used:
  4304 ;;		wreg, status,2, status,0
  4305 ;; Tracked objects:
  4306 ;;		On entry : 0/0
  4307 ;;		On exit  : 0/0
  4308 ;;		Unchanged: 0/0
  4309 ;; Data sizes:     COMMON   BANK0   BANK1   BANK3   BANK2
  4310 ;;      Params:         6       0       0       0       0
  4311 ;;      Locals:         0       6       0       0       0
  4312 ;;      Temps:          0       4       0       0       0
  4313 ;;      Totals:         6      10       0       0       0
  4314 ;;Total ram usage:       16 bytes
  4315 ;; Hardware stack levels used:    1
  4316 ;; Hardware stack levels required when called:    1
  4317 ;; This function calls:
  4318 ;;		Nothing
  4319 ;; This function is called by:
  4320 ;;		_sprintf
  4321 ;; This function uses a non-reentrant model
  4322 ;;
  4323                           
  4324                           
  4325                           ;psect for function __tdiv_to_l_
  4326  13FC                     __tdiv_to_l_:
  4327  13FC                     l3567:	
  4328                           ;incstack = 0
  4329                           ; Regs used in __tdiv_to_l_: [wreg+status,2+status,0]
  4330                           
  4331  13FC  0872               	movf	__tdiv_to_l_@f1,w
  4332  13FD  1283               	bcf	3,5	;RP0=0, select bank0
  4333  13FE  1303               	bcf	3,6	;RP1=0, select bank0
  4334  13FF  00A0               	movwf	??__tdiv_to_l_
  4335  1400  0873               	movf	__tdiv_to_l_@f1+1,w
  4336  1401  00A1               	movwf	??__tdiv_to_l_+1
  4337  1402  0874               	movf	__tdiv_to_l_@f1+2,w
  4338  1403  00A2               	movwf	??__tdiv_to_l_+2
  4339  1404  1003               	clrc
  4340  1405  0D21               	rlf	??__tdiv_to_l_+1,w
  4341  1406  0D22               	rlf	??__tdiv_to_l_+2,w
  4342  1407  00A3               	movwf	??__tdiv_to_l_+3
  4343  1408  0823               	movf	??__tdiv_to_l_+3,w
  4344  1409  00A9               	movwf	__tdiv_to_l_@exp1
  4345  140A  0829               	movf	__tdiv_to_l_@exp1,w
  4346  140B  1D03               	btfss	3,2
  4347  140C  2C0E               	goto	u5041
  4348  140D  2C0F               	goto	u5040
  4349  140E                     u5041:
  4350  140E  2C18               	goto	l3573
  4351  140F                     u5040:
  4352  140F                     l3569:
  4353  140F  3000               	movlw	0
  4354  1410  00F5               	movwf	?__tdiv_to_l_+3
  4355  1411  3000               	movlw	0
  4356  1412  00F4               	movwf	?__tdiv_to_l_+2
  4357  1413  3000               	movlw	0
  4358  1414  00F3               	movwf	?__tdiv_to_l_+1
  4359  1415  3000               	movlw	0
  4360  1416  00F2               	movwf	?__tdiv_to_l_
  4361  1417  2CB8               	goto	l710
  4362  1418                     l3573:
  4363  1418  0875               	movf	__tdiv_to_l_@f2,w
  4364  1419  00A0               	movwf	??__tdiv_to_l_
  4365  141A  0876               	movf	__tdiv_to_l_@f2+1,w
  4366  141B  00A1               	movwf	??__tdiv_to_l_+1
  4367  141C  0877               	movf	__tdiv_to_l_@f2+2,w
  4368  141D  00A2               	movwf	??__tdiv_to_l_+2
  4369  141E  1003               	clrc
  4370  141F  0D21               	rlf	??__tdiv_to_l_+1,w
  4371  1420  0D22               	rlf	??__tdiv_to_l_+2,w
  4372  1421  00A3               	movwf	??__tdiv_to_l_+3
  4373  1422  0823               	movf	??__tdiv_to_l_+3,w
  4374  1423  00A8               	movwf	__tdiv_to_l_@cntr
  4375  1424  0828               	movf	__tdiv_to_l_@cntr,w
  4376  1425  1D03               	btfss	3,2
  4377  1426  2C28               	goto	u5051
  4378  1427  2C29               	goto	u5050
  4379  1428                     u5051:
  4380  1428  2C2A               	goto	l711
  4381  1429                     u5050:
  4382  1429  2C0F               	goto	l3569
  4383  142A                     l711:
  4384  142A  17F3               	bsf	__tdiv_to_l_@f1+1,7
  4385  142B                     l3579:
  4386  142B  30FF               	movlw	255
  4387  142C  05F2               	andwf	__tdiv_to_l_@f1,f
  4388  142D  30FF               	movlw	255
  4389  142E  05F3               	andwf	__tdiv_to_l_@f1+1,f
  4390  142F  3000               	movlw	0
  4391  1430  05F4               	andwf	__tdiv_to_l_@f1+2,f
  4392  1431                     l3581:
  4393  1431  17F6               	bsf	__tdiv_to_l_@f2+1,7
  4394  1432  30FF               	movlw	255
  4395  1433  05F5               	andwf	__tdiv_to_l_@f2,f
  4396  1434  30FF               	movlw	255
  4397  1435  05F6               	andwf	__tdiv_to_l_@f2+1,f
  4398  1436  3000               	movlw	0
  4399  1437  05F7               	andwf	__tdiv_to_l_@f2+2,f
  4400  1438  3000               	movlw	0
  4401  1439  00A7               	movwf	__tdiv_to_l_@quot+3
  4402  143A  3000               	movlw	0
  4403  143B  00A6               	movwf	__tdiv_to_l_@quot+2
  4404  143C  3000               	movlw	0
  4405  143D  00A5               	movwf	__tdiv_to_l_@quot+1
  4406  143E  3000               	movlw	0
  4407  143F  00A4               	movwf	__tdiv_to_l_@quot
  4408  1440                     l3583:
  4409  1440  307F               	movlw	127
  4410  1441  02A9               	subwf	__tdiv_to_l_@exp1,f
  4411  1442                     l3585:
  4412  1442  3098               	movlw	152
  4413  1443  0728               	addwf	__tdiv_to_l_@cntr,w
  4414  1444  00A0               	movwf	??__tdiv_to_l_
  4415  1445  0820               	movf	??__tdiv_to_l_,w
  4416  1446  02A9               	subwf	__tdiv_to_l_@exp1,f
  4417  1447  3018               	movlw	24
  4418  1448  00A0               	movwf	??__tdiv_to_l_
  4419  1449  0820               	movf	??__tdiv_to_l_,w
  4420  144A  00A8               	movwf	__tdiv_to_l_@cntr
  4421  144B                     l3587:
  4422  144B  3001               	movlw	1
  4423  144C  00A0               	movwf	??__tdiv_to_l_
  4424  144D                     u5065:
  4425  144D  1003               	clrc
  4426  144E  0DA4               	rlf	__tdiv_to_l_@quot,f
  4427  144F  0DA5               	rlf	__tdiv_to_l_@quot+1,f
  4428  1450  0DA6               	rlf	__tdiv_to_l_@quot+2,f
  4429  1451  0DA7               	rlf	__tdiv_to_l_@quot+3,f
  4430  1452  0BA0               	decfsz	??__tdiv_to_l_,f
  4431  1453  2C4D               	goto	u5065
  4432  1454                     l3589:
  4433  1454  0877               	movf	__tdiv_to_l_@f2+2,w
  4434  1455  0274               	subwf	__tdiv_to_l_@f1+2,w
  4435  1456  1D03               	skipz
  4436  1457  2C5E               	goto	u5075
  4437  1458  0876               	movf	__tdiv_to_l_@f2+1,w
  4438  1459  0273               	subwf	__tdiv_to_l_@f1+1,w
  4439  145A  1D03               	skipz
  4440  145B  2C5E               	goto	u5075
  4441  145C  0875               	movf	__tdiv_to_l_@f2,w
  4442  145D  0272               	subwf	__tdiv_to_l_@f1,w
  4443  145E                     u5075:
  4444  145E  1C03               	skipc
  4445  145F  2C61               	goto	u5071
  4446  1460  2C62               	goto	u5070
  4447  1461                     u5071:
  4448  1461  2C6D               	goto	l3595
  4449  1462                     u5070:
  4450  1462                     l3591:
  4451  1462  0875               	movf	__tdiv_to_l_@f2,w
  4452  1463  02F2               	subwf	__tdiv_to_l_@f1,f
  4453  1464  0876               	movf	__tdiv_to_l_@f2+1,w
  4454  1465  1C03               	skipc
  4455  1466  0F76               	incfsz	__tdiv_to_l_@f2+1,w
  4456  1467  02F3               	subwf	__tdiv_to_l_@f1+1,f
  4457  1468  0877               	movf	__tdiv_to_l_@f2+2,w
  4458  1469  1C03               	skipc
  4459  146A  0A77               	incf	__tdiv_to_l_@f2+2,w
  4460  146B  02F4               	subwf	__tdiv_to_l_@f1+2,f
  4461  146C                     l3593:
  4462  146C  1424               	bsf	__tdiv_to_l_@quot,0
  4463  146D                     l3595:
  4464  146D  3001               	movlw	1
  4465  146E                     u5085:
  4466  146E  1003               	clrc
  4467  146F  0DF2               	rlf	__tdiv_to_l_@f1,f
  4468  1470  0DF3               	rlf	__tdiv_to_l_@f1+1,f
  4469  1471  0DF4               	rlf	__tdiv_to_l_@f1+2,f
  4470  1472  3EFF               	addlw	-1
  4471  1473  1D03               	skipz
  4472  1474  2C6E               	goto	u5085
  4473  1475                     l3597:
  4474  1475  3001               	movlw	1
  4475  1476  02A8               	subwf	__tdiv_to_l_@cntr,f
  4476  1477  1D03               	btfss	3,2
  4477  1478  2C7A               	goto	u5091
  4478  1479  2C7B               	goto	u5090
  4479  147A                     u5091:
  4480  147A  2C4B               	goto	l3587
  4481  147B                     u5090:
  4482  147B                     l714:
  4483  147B  1FA9               	btfss	__tdiv_to_l_@exp1,7
  4484  147C  2C7E               	goto	u5101
  4485  147D  2C7F               	goto	u5100
  4486  147E                     u5101:
  4487  147E  2C99               	goto	l3607
  4488  147F                     u5100:
  4489  147F                     l3599:
  4490  147F  0829               	movf	__tdiv_to_l_@exp1,w
  4491  1480  3A80               	xorlw	128
  4492  1481  3E97               	addlw	151
  4493  1482  1803               	skipnc
  4494  1483  2C85               	goto	u5111
  4495  1484  2C86               	goto	u5110
  4496  1485                     u5111:
  4497  1485  2C87               	goto	l3605
  4498  1486                     u5110:
  4499  1486  2C0F               	goto	l3569
  4500  1487                     l3605:
  4501  1487  3001               	movlw	1
  4502  1488                     u5125:
  4503  1488  1003               	clrc
  4504  1489  0CA7               	rrf	__tdiv_to_l_@quot+3,f
  4505  148A  0CA6               	rrf	__tdiv_to_l_@quot+2,f
  4506  148B  0CA5               	rrf	__tdiv_to_l_@quot+1,f
  4507  148C  0CA4               	rrf	__tdiv_to_l_@quot,f
  4508  148D  3EFF               	addlw	-1
  4509  148E  1D03               	skipz
  4510  148F  2C88               	goto	u5125
  4511  1490  3001               	movlw	1
  4512  1491  00A0               	movwf	??__tdiv_to_l_
  4513  1492  0820               	movf	??__tdiv_to_l_,w
  4514  1493  07A9               	addwf	__tdiv_to_l_@exp1,f
  4515  1494  1D03               	btfss	3,2
  4516  1495  2C97               	goto	u5131
  4517  1496  2C98               	goto	u5130
  4518  1497                     u5131:
  4519  1497  2C87               	goto	l3605
  4520  1498                     u5130:
  4521  1498  2CB0               	goto	l3615
  4522  1499                     l3607:
  4523  1499  3018               	movlw	24
  4524  149A  0229               	subwf	__tdiv_to_l_@exp1,w
  4525  149B  1C03               	skipc
  4526  149C  2C9E               	goto	u5141
  4527  149D  2C9F               	goto	u5140
  4528  149E                     u5141:
  4529  149E  2CAB               	goto	l721
  4530  149F                     u5140:
  4531  149F  2C0F               	goto	l3569
  4532  14A0                     l3613:
  4533  14A0  3001               	movlw	1
  4534  14A1  00A0               	movwf	??__tdiv_to_l_
  4535  14A2                     u5155:
  4536  14A2  1003               	clrc
  4537  14A3  0DA4               	rlf	__tdiv_to_l_@quot,f
  4538  14A4  0DA5               	rlf	__tdiv_to_l_@quot+1,f
  4539  14A5  0DA6               	rlf	__tdiv_to_l_@quot+2,f
  4540  14A6  0DA7               	rlf	__tdiv_to_l_@quot+3,f
  4541  14A7  0BA0               	decfsz	??__tdiv_to_l_,f
  4542  14A8  2CA2               	goto	u5155
  4543  14A9  3001               	movlw	1
  4544  14AA  02A9               	subwf	__tdiv_to_l_@exp1,f
  4545  14AB                     l721:
  4546  14AB  0829               	movf	__tdiv_to_l_@exp1,w
  4547  14AC  1D03               	btfss	3,2
  4548  14AD  2CAF               	goto	u5161
  4549  14AE  2CB0               	goto	u5160
  4550  14AF                     u5161:
  4551  14AF  2CA0               	goto	l3613
  4552  14B0                     u5160:
  4553  14B0                     l3615:
  4554  14B0  0827               	movf	__tdiv_to_l_@quot+3,w
  4555  14B1  00F5               	movwf	?__tdiv_to_l_+3
  4556  14B2  0826               	movf	__tdiv_to_l_@quot+2,w
  4557  14B3  00F4               	movwf	?__tdiv_to_l_+2
  4558  14B4  0825               	movf	__tdiv_to_l_@quot+1,w
  4559  14B5  00F3               	movwf	?__tdiv_to_l_+1
  4560  14B6  0824               	movf	__tdiv_to_l_@quot,w
  4561  14B7  00F2               	movwf	?__tdiv_to_l_
  4562  14B8                     l710:
  4563  14B8  0008               	return
  4564  14B9                     __end_of__tdiv_to_l_:
  4565                           
  4566                           	psect	text11
  4567  159E                     __ptext11:	
  4568 ;; *************** function __div_to_l_ *****************
  4569 ;; Defined at:
  4570 ;;		line 60 in file "D:\Microchip\xc8\v2.31\pic\sources\c90\common\fldivl.c"
  4571 ;; Parameters:    Size  Location     Type
  4572 ;;  f1              3    2[COMMON] unsigned long 
  4573 ;;  f2              3    5[COMMON] unsigned long 
  4574 ;; Auto vars:     Size  Location     Type
  4575 ;;  quot            4    8[BANK0 ] unsigned long 
  4576 ;;  exp1            1   13[BANK0 ] unsigned char 
  4577 ;;  cntr            1   12[BANK0 ] unsigned char 
  4578 ;; Return value:  Size  Location     Type
  4579 ;;                  4    2[COMMON] unsigned long 
  4580 ;; Registers used:
  4581 ;;		wreg, fsr0l, fsr0h, status,2, status,0
  4582 ;; Tracked objects:
  4583 ;;		On entry : 0/0
  4584 ;;		On exit  : 0/0
  4585 ;;		Unchanged: 0/0
  4586 ;; Data sizes:     COMMON   BANK0   BANK1   BANK3   BANK2
  4587 ;;      Params:         6       0       0       0       0
  4588 ;;      Locals:         0       6       0       0       0
  4589 ;;      Temps:          0       8       0       0       0
  4590 ;;      Totals:         6      14       0       0       0
  4591 ;;Total ram usage:       20 bytes
  4592 ;; Hardware stack levels used:    1
  4593 ;; Hardware stack levels required when called:    1
  4594 ;; This function calls:
  4595 ;;		Nothing
  4596 ;; This function is called by:
  4597 ;;		_sprintf
  4598 ;; This function uses a non-reentrant model
  4599 ;;
  4600                           
  4601                           
  4602                           ;psect for function __div_to_l_
  4603  159E                     __div_to_l_:
  4604  159E                     l2603:	
  4605                           ;incstack = 0
  4606                           ; Regs used in __div_to_l_: [wreg-fsr0h+status,2+status,0]
  4607                           
  4608  159E  3072               	movlw	low (__div_to_l_@f1| 0)
  4609  159F  0084               	movwf	4
  4610  15A0  0800               	movf	0,w
  4611  15A1  1283               	bcf	3,5	;RP0=0, select bank0
  4612  15A2  1303               	bcf	3,6	;RP1=0, select bank0
  4613  15A3  00A0               	movwf	??__div_to_l_
  4614  15A4  0A84               	incf	4,f
  4615  15A5  0800               	movf	0,w
  4616  15A6  00A1               	movwf	??__div_to_l_+1
  4617  15A7  0A84               	incf	4,f
  4618  15A8  0800               	movf	0,w
  4619  15A9  00A2               	movwf	??__div_to_l_+2
  4620  15AA  0A84               	incf	4,f
  4621  15AB  0800               	movf	0,w
  4622  15AC  00A3               	movwf	??__div_to_l_+3
  4623  15AD  1003               	clrc
  4624  15AE  0D22               	rlf	??__div_to_l_+2,w
  4625  15AF  0D23               	rlf	??__div_to_l_+3,w
  4626  15B0  00A4               	movwf	??__div_to_l_+4
  4627  15B1  0824               	movf	??__div_to_l_+4,w
  4628  15B2  00AD               	movwf	__div_to_l_@exp1
  4629  15B3  082D               	movf	__div_to_l_@exp1,w
  4630  15B4  1D03               	btfss	3,2
  4631  15B5  2DB7               	goto	u3271
  4632  15B6  2DB8               	goto	u3270
  4633  15B7                     u3271:
  4634  15B7  2DC1               	goto	l2609
  4635  15B8                     u3270:
  4636  15B8                     l2605:
  4637  15B8  3000               	movlw	0
  4638  15B9  00F5               	movwf	?__div_to_l_+3
  4639  15BA  3000               	movlw	0
  4640  15BB  00F4               	movwf	?__div_to_l_+2
  4641  15BC  3000               	movlw	0
  4642  15BD  00F3               	movwf	?__div_to_l_+1
  4643  15BE  3000               	movlw	0
  4644  15BF  00F2               	movwf	?__div_to_l_
  4645  15C0  2EC9               	goto	l631
  4646  15C1                     l2609:
  4647  15C1  3075               	movlw	low (__div_to_l_@f2| 0)
  4648  15C2  0084               	movwf	4
  4649  15C3  0800               	movf	0,w
  4650  15C4  00A0               	movwf	??__div_to_l_
  4651  15C5  0A84               	incf	4,f
  4652  15C6  0800               	movf	0,w
  4653  15C7  00A1               	movwf	??__div_to_l_+1
  4654  15C8  0A84               	incf	4,f
  4655  15C9  0800               	movf	0,w
  4656  15CA  00A2               	movwf	??__div_to_l_+2
  4657  15CB  0A84               	incf	4,f
  4658  15CC  0800               	movf	0,w
  4659  15CD  00A3               	movwf	??__div_to_l_+3
  4660  15CE  1003               	clrc
  4661  15CF  0D22               	rlf	??__div_to_l_+2,w
  4662  15D0  0D23               	rlf	??__div_to_l_+3,w
  4663  15D1  00A4               	movwf	??__div_to_l_+4
  4664  15D2  0824               	movf	??__div_to_l_+4,w
  4665  15D3  00AC               	movwf	__div_to_l_@cntr
  4666  15D4  082C               	movf	__div_to_l_@cntr,w
  4667  15D5  1D03               	btfss	3,2
  4668  15D6  2DD8               	goto	u3281
  4669  15D7  2DD9               	goto	u3280
  4670  15D8                     u3281:
  4671  15D8  2DDA               	goto	l2615
  4672  15D9                     u3280:
  4673  15D9  2DB8               	goto	l2605
  4674  15DA                     l2615:
  4675  15DA  3072               	movlw	low (__div_to_l_@f1| 0)
  4676  15DB  0084               	movwf	4
  4677  15DC  3000               	movlw	0
  4678  15DD  0480               	iorwf	0,f
  4679  15DE  0A84               	incf	4,f
  4680  15DF  3000               	movlw	0
  4681  15E0  0480               	iorwf	0,f
  4682  15E1  0A84               	incf	4,f
  4683  15E2  3080               	movlw	128
  4684  15E3  0480               	iorwf	0,f
  4685  15E4  0A84               	incf	4,f
  4686  15E5  3000               	movlw	0
  4687  15E6  0480               	iorwf	0,f
  4688  15E7  3072               	movlw	low (__div_to_l_@f1| 0)
  4689  15E8  0084               	movwf	4
  4690  15E9  30FF               	movlw	255
  4691  15EA  0580               	andwf	0,f
  4692  15EB  0A84               	incf	4,f
  4693  15EC  30FF               	movlw	255
  4694  15ED  0580               	andwf	0,f
  4695  15EE  0A84               	incf	4,f
  4696  15EF  30FF               	movlw	255
  4697  15F0  0580               	andwf	0,f
  4698  15F1  0A84               	incf	4,f
  4699  15F2  3000               	movlw	0
  4700  15F3  0580               	andwf	0,f
  4701  15F4  3075               	movlw	low (__div_to_l_@f2| 0)
  4702  15F5  0084               	movwf	4
  4703  15F6  3000               	movlw	0
  4704  15F7  0480               	iorwf	0,f
  4705  15F8  0A84               	incf	4,f
  4706  15F9  3000               	movlw	0
  4707  15FA  0480               	iorwf	0,f
  4708  15FB  0A84               	incf	4,f
  4709  15FC  3080               	movlw	128
  4710  15FD  0480               	iorwf	0,f
  4711  15FE  0A84               	incf	4,f
  4712  15FF  3000               	movlw	0
  4713  1600  0480               	iorwf	0,f
  4714  1601  3075               	movlw	low (__div_to_l_@f2| 0)
  4715  1602  0084               	movwf	4
  4716  1603  30FF               	movlw	255
  4717  1604  0580               	andwf	0,f
  4718  1605  0A84               	incf	4,f
  4719  1606  30FF               	movlw	255
  4720  1607  0580               	andwf	0,f
  4721  1608  0A84               	incf	4,f
  4722  1609  30FF               	movlw	255
  4723  160A  0580               	andwf	0,f
  4724  160B  0A84               	incf	4,f
  4725  160C  3000               	movlw	0
  4726  160D  0580               	andwf	0,f
  4727  160E                     l2617:
  4728  160E  3000               	movlw	0
  4729  160F  00AB               	movwf	__div_to_l_@quot+3
  4730  1610  3000               	movlw	0
  4731  1611  00AA               	movwf	__div_to_l_@quot+2
  4732  1612  3000               	movlw	0
  4733  1613  00A9               	movwf	__div_to_l_@quot+1
  4734  1614  3000               	movlw	0
  4735  1615  00A8               	movwf	__div_to_l_@quot
  4736  1616                     l2619:
  4737  1616  307F               	movlw	127
  4738  1617  02AD               	subwf	__div_to_l_@exp1,f
  4739  1618                     l2621:
  4740  1618  30A0               	movlw	160
  4741  1619  072C               	addwf	__div_to_l_@cntr,w
  4742  161A  00A0               	movwf	??__div_to_l_
  4743  161B  0820               	movf	??__div_to_l_,w
  4744  161C  02AD               	subwf	__div_to_l_@exp1,f
  4745  161D                     l2623:
  4746  161D  3020               	movlw	32
  4747  161E  00A0               	movwf	??__div_to_l_
  4748  161F  0820               	movf	??__div_to_l_,w
  4749  1620  00AC               	movwf	__div_to_l_@cntr
  4750  1621                     l2625:
  4751  1621  3001               	movlw	1
  4752  1622  00A0               	movwf	??__div_to_l_
  4753  1623                     u3295:
  4754  1623  1003               	clrc
  4755  1624  0DA8               	rlf	__div_to_l_@quot,f
  4756  1625  0DA9               	rlf	__div_to_l_@quot+1,f
  4757  1626  0DAA               	rlf	__div_to_l_@quot+2,f
  4758  1627  0DAB               	rlf	__div_to_l_@quot+3,f
  4759  1628  0BA0               	decfsz	??__div_to_l_,f
  4760  1629  2E23               	goto	u3295
  4761  162A                     l2627:
  4762  162A  3075               	movlw	low (__div_to_l_@f2| 0)
  4763  162B  0084               	movwf	4
  4764  162C  0800               	movf	0,w
  4765  162D  00A0               	movwf	??__div_to_l_
  4766  162E  0A84               	incf	4,f
  4767  162F  0800               	movf	0,w
  4768  1630  00A1               	movwf	??__div_to_l_+1
  4769  1631  0A84               	incf	4,f
  4770  1632  0800               	movf	0,w
  4771  1633  00A2               	movwf	??__div_to_l_+2
  4772  1634  0A84               	incf	4,f
  4773  1635  0800               	movf	0,w
  4774  1636  00A3               	movwf	??__div_to_l_+3
  4775  1637  3072               	movlw	low (__div_to_l_@f1| 0)
  4776  1638  0084               	movwf	4
  4777  1639  0800               	movf	0,w
  4778  163A  00A4               	movwf	??__div_to_l_+4
  4779  163B  0A84               	incf	4,f
  4780  163C  0800               	movf	0,w
  4781  163D  00A5               	movwf	??__div_to_l_+5
  4782  163E  0A84               	incf	4,f
  4783  163F  0800               	movf	0,w
  4784  1640  00A6               	movwf	??__div_to_l_+6
  4785  1641  0A84               	incf	4,f
  4786  1642  0800               	movf	0,w
  4787  1643  00A7               	movwf	??__div_to_l_+7
  4788  1644  0823               	movf	??__div_to_l_+3,w
  4789  1645  0227               	subwf	??__div_to_l_+7,w
  4790  1646  1D03               	skipz
  4791  1647  2E52               	goto	u3305
  4792  1648  0822               	movf	??__div_to_l_+2,w
  4793  1649  0226               	subwf	??__div_to_l_+6,w
  4794  164A  1D03               	skipz
  4795  164B  2E52               	goto	u3305
  4796  164C  0821               	movf	??__div_to_l_+1,w
  4797  164D  0225               	subwf	??__div_to_l_+5,w
  4798  164E  1D03               	skipz
  4799  164F  2E52               	goto	u3305
  4800  1650  0820               	movf	??__div_to_l_,w
  4801  1651  0224               	subwf	??__div_to_l_+4,w
  4802  1652                     u3305:
  4803  1652  1C03               	skipc
  4804  1653  2E55               	goto	u3301
  4805  1654  2E56               	goto	u3300
  4806  1655                     u3301:
  4807  1655  2E79               	goto	l634
  4808  1656                     u3300:
  4809  1656                     l2629:
  4810  1656  3075               	movlw	low (__div_to_l_@f2| 0)
  4811  1657  0084               	movwf	4
  4812  1658  0800               	movf	0,w
  4813  1659  00A0               	movwf	??__div_to_l_
  4814  165A  0A84               	incf	4,f
  4815  165B  0800               	movf	0,w
  4816  165C  00A1               	movwf	??__div_to_l_+1
  4817  165D  0A84               	incf	4,f
  4818  165E  0800               	movf	0,w
  4819  165F  00A2               	movwf	??__div_to_l_+2
  4820  1660  0A84               	incf	4,f
  4821  1661  0800               	movf	0,w
  4822  1662  00A3               	movwf	??__div_to_l_+3
  4823  1663  3072               	movlw	low (__div_to_l_@f1| 0)
  4824  1664  0084               	movwf	4
  4825  1665  0820               	movf	??__div_to_l_,w
  4826  1666  0280               	subwf	0,f
  4827  1667  0A84               	incf	4,f
  4828  1668  0821               	movf	??__div_to_l_+1,w
  4829  1669  1C03               	skipc
  4830  166A  0F21               	incfsz	??__div_to_l_+1,w
  4831  166B  0280               	subwf	0,f
  4832  166C  0A84               	incf	4,f
  4833  166D  0822               	movf	??__div_to_l_+2,w
  4834  166E  1C03               	skipc
  4835  166F  0F22               	incfsz	??__div_to_l_+2,w
  4836  1670  0280               	subwf	0,f
  4837  1671  0A84               	incf	4,f
  4838  1672  0823               	movf	??__div_to_l_+3,w
  4839  1673  1C03               	skipc
  4840  1674  0A23               	incf	??__div_to_l_+3,w
  4841  1675  0280               	subwf	0,f
  4842  1676  3003               	movlw	3
  4843  1677  0284               	subwf	4,f
  4844  1678                     l2631:
  4845  1678  1428               	bsf	__div_to_l_@quot,0
  4846  1679                     l634:
  4847  1679  3072               	movlw	low (__div_to_l_@f1| 0)
  4848  167A  0084               	movwf	4
  4849  167B  1003               	clrc
  4850  167C  0D80               	rlf	0,f
  4851  167D  0A84               	incf	4,f
  4852  167E  0D80               	rlf	0,f
  4853  167F  0A84               	incf	4,f
  4854  1680  0D80               	rlf	0,f
  4855  1681  0A84               	incf	4,f
  4856  1682  0D80               	rlf	0,f
  4857  1683  0384               	decf	4,f
  4858  1684  0384               	decf	4,f
  4859  1685  0384               	decf	4,f
  4860  1686                     l2633:
  4861  1686  3001               	movlw	1
  4862  1687  02AC               	subwf	__div_to_l_@cntr,f
  4863  1688  1D03               	btfss	3,2
  4864  1689  2E8B               	goto	u3311
  4865  168A  2E8C               	goto	u3310
  4866  168B                     u3311:
  4867  168B  2E21               	goto	l2625
  4868  168C                     u3310:
  4869  168C                     l635:
  4870  168C  1FAD               	btfss	__div_to_l_@exp1,7
  4871  168D  2E8F               	goto	u3321
  4872  168E  2E90               	goto	u3320
  4873  168F                     u3321:
  4874  168F  2EAA               	goto	l2643
  4875  1690                     u3320:
  4876  1690                     l2635:
  4877  1690  082D               	movf	__div_to_l_@exp1,w
  4878  1691  3A80               	xorlw	128
  4879  1692  3E9F               	addlw	159
  4880  1693  1803               	skipnc
  4881  1694  2E96               	goto	u3331
  4882  1695  2E97               	goto	u3330
  4883  1696                     u3331:
  4884  1696  2E98               	goto	l2641
  4885  1697                     u3330:
  4886  1697  2DB8               	goto	l2605
  4887  1698                     l2641:
  4888  1698  3001               	movlw	1
  4889  1699                     u3345:
  4890  1699  1003               	clrc
  4891  169A  0CAB               	rrf	__div_to_l_@quot+3,f
  4892  169B  0CAA               	rrf	__div_to_l_@quot+2,f
  4893  169C  0CA9               	rrf	__div_to_l_@quot+1,f
  4894  169D  0CA8               	rrf	__div_to_l_@quot,f
  4895  169E  3EFF               	addlw	-1
  4896  169F  1D03               	skipz
  4897  16A0  2E99               	goto	u3345
  4898  16A1  3001               	movlw	1
  4899  16A2  00A0               	movwf	??__div_to_l_
  4900  16A3  0820               	movf	??__div_to_l_,w
  4901  16A4  07AD               	addwf	__div_to_l_@exp1,f
  4902  16A5  1D03               	btfss	3,2
  4903  16A6  2EA8               	goto	u3351
  4904  16A7  2EA9               	goto	u3350
  4905  16A8                     u3351:
  4906  16A8  2E98               	goto	l2641
  4907  16A9                     u3350:
  4908  16A9  2EC1               	goto	l2651
  4909  16AA                     l2643:
  4910  16AA  3020               	movlw	32
  4911  16AB  022D               	subwf	__div_to_l_@exp1,w
  4912  16AC  1C03               	skipc
  4913  16AD  2EAF               	goto	u3361
  4914  16AE  2EB0               	goto	u3360
  4915  16AF                     u3361:
  4916  16AF  2EBC               	goto	l642
  4917  16B0                     u3360:
  4918  16B0  2DB8               	goto	l2605
  4919  16B1                     l2649:
  4920  16B1  3001               	movlw	1
  4921  16B2  00A0               	movwf	??__div_to_l_
  4922  16B3                     u3375:
  4923  16B3  1003               	clrc
  4924  16B4  0DA8               	rlf	__div_to_l_@quot,f
  4925  16B5  0DA9               	rlf	__div_to_l_@quot+1,f
  4926  16B6  0DAA               	rlf	__div_to_l_@quot+2,f
  4927  16B7  0DAB               	rlf	__div_to_l_@quot+3,f
  4928  16B8  0BA0               	decfsz	??__div_to_l_,f
  4929  16B9  2EB3               	goto	u3375
  4930  16BA  3001               	movlw	1
  4931  16BB  02AD               	subwf	__div_to_l_@exp1,f
  4932  16BC                     l642:
  4933  16BC  082D               	movf	__div_to_l_@exp1,w
  4934  16BD  1D03               	btfss	3,2
  4935  16BE  2EC0               	goto	u3381
  4936  16BF  2EC1               	goto	u3380
  4937  16C0                     u3381:
  4938  16C0  2EB1               	goto	l2649
  4939  16C1                     u3380:
  4940  16C1                     l2651:
  4941  16C1  082B               	movf	__div_to_l_@quot+3,w
  4942  16C2  00F5               	movwf	?__div_to_l_+3
  4943  16C3  082A               	movf	__div_to_l_@quot+2,w
  4944  16C4  00F4               	movwf	?__div_to_l_+2
  4945  16C5  0829               	movf	__div_to_l_@quot+1,w
  4946  16C6  00F3               	movwf	?__div_to_l_+1
  4947  16C7  0828               	movf	__div_to_l_@quot,w
  4948  16C8  00F2               	movwf	?__div_to_l_
  4949  16C9                     l631:
  4950  16C9  0008               	return
  4951  16CA                     __end_of__div_to_l_:
  4952                           
  4953                           	psect	text12
  4954  1E56                     __ptext12:	
  4955 ;; *************** function ___wmul *****************
  4956 ;; Defined at:
  4957 ;;		line 15 in file "D:\Microchip\xc8\v2.31\pic\sources\c90\common\Umul16.c"
  4958 ;; Parameters:    Size  Location     Type
  4959 ;;  multiplier      2    2[COMMON] unsigned int 
  4960 ;;  multiplicand    2    4[COMMON] unsigned int 
  4961 ;; Auto vars:     Size  Location     Type
  4962 ;;  product         2    6[COMMON] unsigned int 
  4963 ;; Return value:  Size  Location     Type
  4964 ;;                  2    2[COMMON] unsigned int 
  4965 ;; Registers used:
  4966 ;;		wreg, status,2, status,0
  4967 ;; Tracked objects:
  4968 ;;		On entry : 0/0
  4969 ;;		On exit  : 0/0
  4970 ;;		Unchanged: 0/0
  4971 ;; Data sizes:     COMMON   BANK0   BANK1   BANK3   BANK2
  4972 ;;      Params:         4       0       0       0       0
  4973 ;;      Locals:         2       0       0       0       0
  4974 ;;      Temps:          0       0       0       0       0
  4975 ;;      Totals:         6       0       0       0       0
  4976 ;;Total ram usage:        6 bytes
  4977 ;; Hardware stack levels used:    1
  4978 ;; Hardware stack levels required when called:    1
  4979 ;; This function calls:
  4980 ;;		Nothing
  4981 ;; This function is called by:
  4982 ;;		_sprintf
  4983 ;; This function uses a non-reentrant model
  4984 ;;
  4985                           
  4986                           
  4987                           ;psect for function ___wmul
  4988  1E56                     ___wmul:
  4989  1E56                     l2655:	
  4990                           ;incstack = 0
  4991                           ; Regs used in ___wmul: [wreg+status,2+status,0]
  4992                           
  4993  1E56  01F6               	clrf	___wmul@product
  4994  1E57  01F7               	clrf	___wmul@product+1
  4995  1E58                     l2657:
  4996  1E58  1C72               	btfss	___wmul@multiplier,0
  4997  1E59  2E5B               	goto	u3391
  4998  1E5A  2E5C               	goto	u3390
  4999  1E5B                     u3391:
  5000  1E5B  2E62               	goto	l425
  5001  1E5C                     u3390:
  5002  1E5C                     l2659:
  5003  1E5C  0874               	movf	___wmul@multiplicand,w
  5004  1E5D  07F6               	addwf	___wmul@product,f
  5005  1E5E  1803               	skipnc
  5006  1E5F  0AF7               	incf	___wmul@product+1,f
  5007  1E60  0875               	movf	___wmul@multiplicand+1,w
  5008  1E61  07F7               	addwf	___wmul@product+1,f
  5009  1E62                     l425:
  5010  1E62  3001               	movlw	1
  5011  1E63                     u3405:
  5012  1E63  1003               	clrc
  5013  1E64  0DF4               	rlf	___wmul@multiplicand,f
  5014  1E65  0DF5               	rlf	___wmul@multiplicand+1,f
  5015  1E66  3EFF               	addlw	-1
  5016  1E67  1D03               	skipz
  5017  1E68  2E63               	goto	u3405
  5018  1E69                     l2661:
  5019  1E69  3001               	movlw	1
  5020  1E6A                     u3415:
  5021  1E6A  1003               	clrc
  5022  1E6B  0CF3               	rrf	___wmul@multiplier+1,f
  5023  1E6C  0CF2               	rrf	___wmul@multiplier,f
  5024  1E6D  3EFF               	addlw	-1
  5025  1E6E  1D03               	skipz
  5026  1E6F  2E6A               	goto	u3415
  5027  1E70                     l2663:
  5028  1E70  0872               	movf	___wmul@multiplier,w
  5029  1E71  0473               	iorwf	___wmul@multiplier+1,w
  5030  1E72  1D03               	btfss	3,2
  5031  1E73  2E75               	goto	u3421
  5032  1E74  2E76               	goto	u3420
  5033  1E75                     u3421:
  5034  1E75  2E58               	goto	l2657
  5035  1E76                     u3420:
  5036  1E76                     l2665:
  5037  1E76  0877               	movf	___wmul@product+1,w
  5038  1E77  00F3               	movwf	?___wmul+1
  5039  1E78  0876               	movf	___wmul@product,w
  5040  1E79  00F2               	movwf	?___wmul
  5041  1E7A                     l427:
  5042  1E7A  0008               	return
  5043  1E7B                     __end_of___wmul:
  5044                           
  5045                           	psect	text13
  5046  1ECF                     __ptext13:	
  5047 ;; *************** function ___lltoft *****************
  5048 ;; Defined at:
  5049 ;;		line 35 in file "D:\Microchip\xc8\v2.31\pic\sources\c90\common\lltoft.c"
  5050 ;; Parameters:    Size  Location     Type
  5051 ;;  c               4    0[BANK0 ] unsigned long 
  5052 ;; Auto vars:     Size  Location     Type
  5053 ;;  exp             1    4[BANK0 ] unsigned char 
  5054 ;; Return value:  Size  Location     Type
  5055 ;;                  3    0[BANK0 ] float 
  5056 ;; Registers used:
  5057 ;;		wreg, status,2, status,0, pclath, cstack
  5058 ;; Tracked objects:
  5059 ;;		On entry : 0/0
  5060 ;;		On exit  : 0/0
  5061 ;;		Unchanged: 0/0
  5062 ;; Data sizes:     COMMON   BANK0   BANK1   BANK3   BANK2
  5063 ;;      Params:         0       4       0       0       0
  5064 ;;      Locals:         0       1       0       0       0
  5065 ;;      Temps:          1       0       0       0       0
  5066 ;;      Totals:         1       5       0       0       0
  5067 ;;Total ram usage:        6 bytes
  5068 ;; Hardware stack levels used:    1
  5069 ;; Hardware stack levels required when called:    2
  5070 ;; This function calls:
  5071 ;;		___ftpack
  5072 ;; This function is called by:
  5073 ;;		_sprintf
  5074 ;; This function uses a non-reentrant model
  5075 ;;
  5076                           
  5077                           
  5078                           ;psect for function ___lltoft
  5079  1ECF                     ___lltoft:
  5080  1ECF                     l3659:	
  5081                           ;incstack = 0
  5082                           ; Regs used in ___lltoft: [wreg+status,2+status,0+pclath+cstack]
  5083                           
  5084  1ECF  308E               	movlw	142
  5085  1ED0  00FA               	movwf	??___lltoft
  5086  1ED1  087A               	movf	??___lltoft,w
  5087  1ED2  1283               	bcf	3,5	;RP0=0, select bank0
  5088  1ED3  1303               	bcf	3,6	;RP1=0, select bank0
  5089  1ED4  00A4               	movwf	___lltoft@exp
  5090  1ED5  2EE3               	goto	l3663
  5091  1ED6                     l3661:
  5092  1ED6  3001               	movlw	1
  5093  1ED7                     u5255:
  5094  1ED7  1003               	clrc
  5095  1ED8  0CA3               	rrf	___lltoft@c+3,f
  5096  1ED9  0CA2               	rrf	___lltoft@c+2,f
  5097  1EDA  0CA1               	rrf	___lltoft@c+1,f
  5098  1EDB  0CA0               	rrf	___lltoft@c,f
  5099  1EDC  3EFF               	addlw	-1
  5100  1EDD  1D03               	skipz
  5101  1EDE  2ED7               	goto	u5255
  5102  1EDF  3001               	movlw	1
  5103  1EE0  00FA               	movwf	??___lltoft
  5104  1EE1  087A               	movf	??___lltoft,w
  5105  1EE2  07A4               	addwf	___lltoft@exp,f
  5106  1EE3                     l3663:
  5107  1EE3  30FF               	movlw	255
  5108  1EE4  0523               	andwf	___lltoft@c+3,w
  5109  1EE5  1D03               	btfss	3,2
  5110  1EE6  2EE8               	goto	u5261
  5111  1EE7  2EE9               	goto	u5260
  5112  1EE8                     u5261:
  5113  1EE8  2ED6               	goto	l3661
  5114  1EE9                     u5260:
  5115  1EE9                     l3665:
  5116  1EE9  0820               	movf	___lltoft@c,w
  5117  1EEA  00F2               	movwf	___ftpack@arg
  5118  1EEB  0821               	movf	___lltoft@c+1,w
  5119  1EEC  00F3               	movwf	___ftpack@arg+1
  5120  1EED  0822               	movf	___lltoft@c+2,w
  5121  1EEE  00F4               	movwf	___ftpack@arg+2
  5122  1EEF  0824               	movf	___lltoft@exp,w
  5123  1EF0  00FA               	movwf	??___lltoft
  5124  1EF1  087A               	movf	??___lltoft,w
  5125  1EF2  00F5               	movwf	___ftpack@exp
  5126  1EF3  01F6               	clrf	___ftpack@sign
  5127  1EF4  160A  118A  22F4  160A  158A  	fcall	___ftpack
  5128  1EF9  0872               	movf	?___ftpack,w
  5129  1EFA  1283               	bcf	3,5	;RP0=0, select bank0
  5130  1EFB  1303               	bcf	3,6	;RP1=0, select bank0
  5131  1EFC  00A0               	movwf	?___lltoft
  5132  1EFD  0873               	movf	?___ftpack+1,w
  5133  1EFE  00A1               	movwf	?___lltoft+1
  5134  1EFF  0874               	movf	?___ftpack+2,w
  5135  1F00  00A2               	movwf	?___lltoft+2
  5136  1F01                     l804:
  5137  1F01  0008               	return
  5138  1F02                     __end_of___lltoft:
  5139                           
  5140                           	psect	text14
  5141  1174                     __ptext14:	
  5142 ;; *************** function ___llmod *****************
  5143 ;; Defined at:
  5144 ;;		line 5 in file "D:\Microchip\xc8\v2.31\pic\sources\c90\common\llmod.c"
  5145 ;; Parameters:    Size  Location     Type
  5146 ;;  divisor         4    5[BANK0 ] unsigned long 
  5147 ;;  dividend        4    9[BANK0 ] unsigned long 
  5148 ;; Auto vars:     Size  Location     Type
  5149 ;;  counter         1   14[BANK0 ] unsigned char 
  5150 ;; Return value:  Size  Location     Type
  5151 ;;                  4    5[BANK0 ] unsigned long 
  5152 ;; Registers used:
  5153 ;;		wreg, status,2, status,0
  5154 ;; Tracked objects:
  5155 ;;		On entry : 0/0
  5156 ;;		On exit  : 0/0
  5157 ;;		Unchanged: 0/0
  5158 ;; Data sizes:     COMMON   BANK0   BANK1   BANK3   BANK2
  5159 ;;      Params:         0       8       0       0       0
  5160 ;;      Locals:         0       1       0       0       0
  5161 ;;      Temps:          0       1       0       0       0
  5162 ;;      Totals:         0      10       0       0       0
  5163 ;;Total ram usage:       10 bytes
  5164 ;; Hardware stack levels used:    1
  5165 ;; Hardware stack levels required when called:    1
  5166 ;; This function calls:
  5167 ;;		Nothing
  5168 ;; This function is called by:
  5169 ;;		_sprintf
  5170 ;; This function uses a non-reentrant model
  5171 ;;
  5172                           
  5173                           
  5174                           ;psect for function ___llmod
  5175  1174                     ___llmod:
  5176  1174                     l3639:	
  5177                           ;incstack = 0
  5178                           ; Regs used in ___llmod: [wreg+status,2+status,0]
  5179                           
  5180  1174  1283               	bcf	3,5	;RP0=0, select bank0
  5181  1175  1303               	bcf	3,6	;RP1=0, select bank0
  5182  1176  0828               	movf	___llmod@divisor+3,w
  5183  1177  0427               	iorwf	___llmod@divisor+2,w
  5184  1178  0426               	iorwf	___llmod@divisor+1,w
  5185  1179  0425               	iorwf	___llmod@divisor,w
  5186  117A  1903               	skipnz
  5187  117B  297D               	goto	u5191
  5188  117C  297E               	goto	u5190
  5189  117D                     u5191:
  5190  117D  29C1               	goto	l3655
  5191  117E                     u5190:
  5192  117E                     l3641:
  5193  117E  01AE               	clrf	___llmod@counter
  5194  117F  0AAE               	incf	___llmod@counter,f
  5195  1180  298E               	goto	l3645
  5196  1181                     l3643:
  5197  1181  3001               	movlw	1
  5198  1182  00AD               	movwf	??___llmod
  5199  1183                     u5205:
  5200  1183  1003               	clrc
  5201  1184  0DA5               	rlf	___llmod@divisor,f
  5202  1185  0DA6               	rlf	___llmod@divisor+1,f
  5203  1186  0DA7               	rlf	___llmod@divisor+2,f
  5204  1187  0DA8               	rlf	___llmod@divisor+3,f
  5205  1188  0BAD               	decfsz	??___llmod,f
  5206  1189  2983               	goto	u5205
  5207  118A  3001               	movlw	1
  5208  118B  00AD               	movwf	??___llmod
  5209  118C  082D               	movf	??___llmod,w
  5210  118D  07AE               	addwf	___llmod@counter,f
  5211  118E                     l3645:
  5212  118E  1FA8               	btfss	___llmod@divisor+3,7
  5213  118F  2991               	goto	u5211
  5214  1190  2992               	goto	u5210
  5215  1191                     u5211:
  5216  1191  2981               	goto	l3643
  5217  1192                     u5210:
  5218  1192                     l3647:
  5219  1192  0828               	movf	___llmod@divisor+3,w
  5220  1193  022C               	subwf	___llmod@dividend+3,w
  5221  1194  1D03               	skipz
  5222  1195  29A0               	goto	u5225
  5223  1196  0827               	movf	___llmod@divisor+2,w
  5224  1197  022B               	subwf	___llmod@dividend+2,w
  5225  1198  1D03               	skipz
  5226  1199  29A0               	goto	u5225
  5227  119A  0826               	movf	___llmod@divisor+1,w
  5228  119B  022A               	subwf	___llmod@dividend+1,w
  5229  119C  1D03               	skipz
  5230  119D  29A0               	goto	u5225
  5231  119E  0825               	movf	___llmod@divisor,w
  5232  119F  0229               	subwf	___llmod@dividend,w
  5233  11A0                     u5225:
  5234  11A0  1C03               	skipc
  5235  11A1  29A3               	goto	u5221
  5236  11A2  29A4               	goto	u5220
  5237  11A3                     u5221:
  5238  11A3  29B2               	goto	l3651
  5239  11A4                     u5220:
  5240  11A4                     l3649:
  5241  11A4  0825               	movf	___llmod@divisor,w
  5242  11A5  02A9               	subwf	___llmod@dividend,f
  5243  11A6  0826               	movf	___llmod@divisor+1,w
  5244  11A7  1C03               	skipc
  5245  11A8  0F26               	incfsz	___llmod@divisor+1,w
  5246  11A9  02AA               	subwf	___llmod@dividend+1,f
  5247  11AA  0827               	movf	___llmod@divisor+2,w
  5248  11AB  1C03               	skipc
  5249  11AC  0F27               	incfsz	___llmod@divisor+2,w
  5250  11AD  02AB               	subwf	___llmod@dividend+2,f
  5251  11AE  0828               	movf	___llmod@divisor+3,w
  5252  11AF  1C03               	skipc
  5253  11B0  0F28               	incfsz	___llmod@divisor+3,w
  5254  11B1  02AC               	subwf	___llmod@dividend+3,f
  5255  11B2                     l3651:
  5256  11B2  3001               	movlw	1
  5257  11B3                     u5235:
  5258  11B3  1003               	clrc
  5259  11B4  0CA8               	rrf	___llmod@divisor+3,f
  5260  11B5  0CA7               	rrf	___llmod@divisor+2,f
  5261  11B6  0CA6               	rrf	___llmod@divisor+1,f
  5262  11B7  0CA5               	rrf	___llmod@divisor,f
  5263  11B8  3EFF               	addlw	-1
  5264  11B9  1D03               	skipz
  5265  11BA  29B3               	goto	u5235
  5266  11BB                     l3653:
  5267  11BB  3001               	movlw	1
  5268  11BC  02AE               	subwf	___llmod@counter,f
  5269  11BD  1D03               	btfss	3,2
  5270  11BE  29C0               	goto	u5241
  5271  11BF  29C1               	goto	u5240
  5272  11C0                     u5241:
  5273  11C0  2992               	goto	l3647
  5274  11C1                     u5240:
  5275  11C1                     l3655:
  5276  11C1  082C               	movf	___llmod@dividend+3,w
  5277  11C2  00A8               	movwf	?___llmod+3
  5278  11C3  082B               	movf	___llmod@dividend+2,w
  5279  11C4  00A7               	movwf	?___llmod+2
  5280  11C5  082A               	movf	___llmod@dividend+1,w
  5281  11C6  00A6               	movwf	?___llmod+1
  5282  11C7  0829               	movf	___llmod@dividend,w
  5283  11C8  00A5               	movwf	?___llmod
  5284  11C9                     l796:
  5285  11C9  0008               	return
  5286  11CA                     __end_of___llmod:
  5287                           
  5288                           	psect	text15
  5289  1223                     __ptext15:	
  5290 ;; *************** function ___lldiv *****************
  5291 ;; Defined at:
  5292 ;;		line 5 in file "D:\Microchip\xc8\v2.31\pic\sources\c90\common\__lldiv.c"
  5293 ;; Parameters:    Size  Location     Type
  5294 ;;  divisor         4    2[COMMON] unsigned long 
  5295 ;;  dividend        4    6[COMMON] unsigned long 
  5296 ;; Auto vars:     Size  Location     Type
  5297 ;;  quotient        4    0[BANK0 ] unsigned long 
  5298 ;;  counter         1    4[BANK0 ] unsigned char 
  5299 ;; Return value:  Size  Location     Type
  5300 ;;                  4    2[COMMON] unsigned long 
  5301 ;; Registers used:
  5302 ;;		wreg, status,2, status,0
  5303 ;; Tracked objects:
  5304 ;;		On entry : 0/0
  5305 ;;		On exit  : 0/0
  5306 ;;		Unchanged: 0/0
  5307 ;; Data sizes:     COMMON   BANK0   BANK1   BANK3   BANK2
  5308 ;;      Params:         8       0       0       0       0
  5309 ;;      Locals:         0       5       0       0       0
  5310 ;;      Temps:          1       0       0       0       0
  5311 ;;      Totals:         9       5       0       0       0
  5312 ;;Total ram usage:       14 bytes
  5313 ;; Hardware stack levels used:    1
  5314 ;; Hardware stack levels required when called:    1
  5315 ;; This function calls:
  5316 ;;		Nothing
  5317 ;; This function is called by:
  5318 ;;		_sprintf
  5319 ;; This function uses a non-reentrant model
  5320 ;;
  5321                           
  5322                           
  5323                           ;psect for function ___lldiv
  5324  1223                     ___lldiv:
  5325  1223                     l2669:	
  5326                           ;incstack = 0
  5327                           ; Regs used in ___lldiv: [wreg+status,2+status,0]
  5328                           
  5329  1223  3000               	movlw	0
  5330  1224  1283               	bcf	3,5	;RP0=0, select bank0
  5331  1225  1303               	bcf	3,6	;RP1=0, select bank0
  5332  1226  00A3               	movwf	___lldiv@quotient+3
  5333  1227  3000               	movlw	0
  5334  1228  00A2               	movwf	___lldiv@quotient+2
  5335  1229  3000               	movlw	0
  5336  122A  00A1               	movwf	___lldiv@quotient+1
  5337  122B  3000               	movlw	0
  5338  122C  00A0               	movwf	___lldiv@quotient
  5339  122D  0875               	movf	___lldiv@divisor+3,w
  5340  122E  0474               	iorwf	___lldiv@divisor+2,w
  5341  122F  0473               	iorwf	___lldiv@divisor+1,w
  5342  1230  0472               	iorwf	___lldiv@divisor,w
  5343  1231  1903               	skipnz
  5344  1232  2A34               	goto	u3431
  5345  1233  2A35               	goto	u3430
  5346  1234                     u3431:
  5347  1234  2A82               	goto	l2689
  5348  1235                     u3430:
  5349  1235                     l2671:
  5350  1235  01A4               	clrf	___lldiv@counter
  5351  1236  0AA4               	incf	___lldiv@counter,f
  5352  1237  2A45               	goto	l2675
  5353  1238                     l2673:
  5354  1238  3001               	movlw	1
  5355  1239  00FA               	movwf	??___lldiv
  5356  123A                     u3445:
  5357  123A  1003               	clrc
  5358  123B  0DF2               	rlf	___lldiv@divisor,f
  5359  123C  0DF3               	rlf	___lldiv@divisor+1,f
  5360  123D  0DF4               	rlf	___lldiv@divisor+2,f
  5361  123E  0DF5               	rlf	___lldiv@divisor+3,f
  5362  123F  0BFA               	decfsz	??___lldiv,f
  5363  1240  2A3A               	goto	u3445
  5364  1241  3001               	movlw	1
  5365  1242  00FA               	movwf	??___lldiv
  5366  1243  087A               	movf	??___lldiv,w
  5367  1244  07A4               	addwf	___lldiv@counter,f
  5368  1245                     l2675:
  5369  1245  1FF5               	btfss	___lldiv@divisor+3,7
  5370  1246  2A48               	goto	u3451
  5371  1247  2A49               	goto	u3450
  5372  1248                     u3451:
  5373  1248  2A38               	goto	l2673
  5374  1249                     u3450:
  5375  1249                     l2677:
  5376  1249  3001               	movlw	1
  5377  124A  00FA               	movwf	??___lldiv
  5378  124B                     u3465:
  5379  124B  1003               	clrc
  5380  124C  0DA0               	rlf	___lldiv@quotient,f
  5381  124D  0DA1               	rlf	___lldiv@quotient+1,f
  5382  124E  0DA2               	rlf	___lldiv@quotient+2,f
  5383  124F  0DA3               	rlf	___lldiv@quotient+3,f
  5384  1250  0BFA               	decfsz	??___lldiv,f
  5385  1251  2A4B               	goto	u3465
  5386  1252                     l2679:
  5387  1252  0875               	movf	___lldiv@divisor+3,w
  5388  1253  0279               	subwf	___lldiv@dividend+3,w
  5389  1254  1D03               	skipz
  5390  1255  2A60               	goto	u3475
  5391  1256  0874               	movf	___lldiv@divisor+2,w
  5392  1257  0278               	subwf	___lldiv@dividend+2,w
  5393  1258  1D03               	skipz
  5394  1259  2A60               	goto	u3475
  5395  125A  0873               	movf	___lldiv@divisor+1,w
  5396  125B  0277               	subwf	___lldiv@dividend+1,w
  5397  125C  1D03               	skipz
  5398  125D  2A60               	goto	u3475
  5399  125E  0872               	movf	___lldiv@divisor,w
  5400  125F  0276               	subwf	___lldiv@dividend,w
  5401  1260                     u3475:
  5402  1260  1C03               	skipc
  5403  1261  2A63               	goto	u3471
  5404  1262  2A64               	goto	u3470
  5405  1263                     u3471:
  5406  1263  2A73               	goto	l2685
  5407  1264                     u3470:
  5408  1264                     l2681:
  5409  1264  0872               	movf	___lldiv@divisor,w
  5410  1265  02F6               	subwf	___lldiv@dividend,f
  5411  1266  0873               	movf	___lldiv@divisor+1,w
  5412  1267  1C03               	skipc
  5413  1268  0F73               	incfsz	___lldiv@divisor+1,w
  5414  1269  02F7               	subwf	___lldiv@dividend+1,f
  5415  126A  0874               	movf	___lldiv@divisor+2,w
  5416  126B  1C03               	skipc
  5417  126C  0F74               	incfsz	___lldiv@divisor+2,w
  5418  126D  02F8               	subwf	___lldiv@dividend+2,f
  5419  126E  0875               	movf	___lldiv@divisor+3,w
  5420  126F  1C03               	skipc
  5421  1270  0F75               	incfsz	___lldiv@divisor+3,w
  5422  1271  02F9               	subwf	___lldiv@dividend+3,f
  5423  1272                     l2683:
  5424  1272  1420               	bsf	___lldiv@quotient,0
  5425  1273                     l2685:
  5426  1273  3001               	movlw	1
  5427  1274                     u3485:
  5428  1274  1003               	clrc
  5429  1275  0CF5               	rrf	___lldiv@divisor+3,f
  5430  1276  0CF4               	rrf	___lldiv@divisor+2,f
  5431  1277  0CF3               	rrf	___lldiv@divisor+1,f
  5432  1278  0CF2               	rrf	___lldiv@divisor,f
  5433  1279  3EFF               	addlw	-1
  5434  127A  1D03               	skipz
  5435  127B  2A74               	goto	u3485
  5436  127C                     l2687:
  5437  127C  3001               	movlw	1
  5438  127D  02A4               	subwf	___lldiv@counter,f
  5439  127E  1D03               	btfss	3,2
  5440  127F  2A81               	goto	u3491
  5441  1280  2A82               	goto	u3490
  5442  1281                     u3491:
  5443  1281  2A49               	goto	l2677
  5444  1282                     u3490:
  5445  1282                     l2689:
  5446  1282  0823               	movf	___lldiv@quotient+3,w
  5447  1283  00F5               	movwf	?___lldiv+3
  5448  1284  0822               	movf	___lldiv@quotient+2,w
  5449  1285  00F4               	movwf	?___lldiv+2
  5450  1286  0821               	movf	___lldiv@quotient+1,w
  5451  1287  00F3               	movwf	?___lldiv+1
  5452  1288  0820               	movf	___lldiv@quotient,w
  5453  1289  00F2               	movwf	?___lldiv
  5454  128A                     l461:
  5455  128A  0008               	return
  5456  128B                     __end_of___lldiv:
  5457                           
  5458                           	psect	text16
  5459  1370                     __ptext16:	
  5460 ;; *************** function ___fttol *****************
  5461 ;; Defined at:
  5462 ;;		line 44 in file "D:\Microchip\xc8\v2.31\pic\sources\c90\common\fttol.c"
  5463 ;; Parameters:    Size  Location     Type
  5464 ;;  f1              3   36[BANK0 ] float 
  5465 ;; Auto vars:     Size  Location     Type
  5466 ;;  lval            4   45[BANK0 ] unsigned long 
  5467 ;;  exp1            1   49[BANK0 ] unsigned char 
  5468 ;;  sign1           1   44[BANK0 ] unsigned char 
  5469 ;; Return value:  Size  Location     Type
  5470 ;;                  4   36[BANK0 ] long 
  5471 ;; Registers used:
  5472 ;;		wreg, status,2, status,0
  5473 ;; Tracked objects:
  5474 ;;		On entry : 0/0
  5475 ;;		On exit  : 0/0
  5476 ;;		Unchanged: 0/0
  5477 ;; Data sizes:     COMMON   BANK0   BANK1   BANK3   BANK2
  5478 ;;      Params:         0       4       0       0       0
  5479 ;;      Locals:         0       6       0       0       0
  5480 ;;      Temps:          0       4       0       0       0
  5481 ;;      Totals:         0      14       0       0       0
  5482 ;;Total ram usage:       14 bytes
  5483 ;; Hardware stack levels used:    1
  5484 ;; Hardware stack levels required when called:    1
  5485 ;; This function calls:
  5486 ;;		Nothing
  5487 ;; This function is called by:
  5488 ;;		_sprintf
  5489 ;; This function uses a non-reentrant model
  5490 ;;
  5491                           
  5492                           
  5493                           ;psect for function ___fttol
  5494  1370                     ___fttol:
  5495  1370                     l2741:	
  5496                           ;incstack = 0
  5497                           ; Regs used in ___fttol: [wreg+status,2+status,0]
  5498                           
  5499  1370  1283               	bcf	3,5	;RP0=0, select bank0
  5500  1371  1303               	bcf	3,6	;RP1=0, select bank0
  5501  1372  0844               	movf	___fttol@f1,w
  5502  1373  00C8               	movwf	??___fttol
  5503  1374  0845               	movf	___fttol@f1+1,w
  5504  1375  00C9               	movwf	??___fttol+1
  5505  1376  0846               	movf	___fttol@f1+2,w
  5506  1377  00CA               	movwf	??___fttol+2
  5507  1378  1003               	clrc
  5508  1379  0D49               	rlf	??___fttol+1,w
  5509  137A  0D4A               	rlf	??___fttol+2,w
  5510  137B  00CB               	movwf	??___fttol+3
  5511  137C  084B               	movf	??___fttol+3,w
  5512  137D  00D1               	movwf	___fttol@exp1
  5513  137E  0851               	movf	___fttol@exp1,w
  5514  137F  1D03               	btfss	3,2
  5515  1380  2B82               	goto	u3561
  5516  1381  2B83               	goto	u3560
  5517  1382                     u3561:
  5518  1382  2B8C               	goto	l2747
  5519  1383                     u3560:
  5520  1383                     l2743:
  5521  1383  3000               	movlw	0
  5522  1384  00C7               	movwf	?___fttol+3
  5523  1385  3000               	movlw	0
  5524  1386  00C6               	movwf	?___fttol+2
  5525  1387  3000               	movlw	0
  5526  1388  00C5               	movwf	?___fttol+1
  5527  1389  3000               	movlw	0
  5528  138A  00C4               	movwf	?___fttol
  5529  138B  2BFB               	goto	l755
  5530  138C                     l2747:
  5531  138C  0844               	movf	___fttol@f1,w
  5532  138D  00C8               	movwf	??___fttol
  5533  138E  0845               	movf	___fttol@f1+1,w
  5534  138F  00C9               	movwf	??___fttol+1
  5535  1390  0846               	movf	___fttol@f1+2,w
  5536  1391  00CA               	movwf	??___fttol+2
  5537  1392  3017               	movlw	23
  5538  1393                     u3575:
  5539  1393  1003               	clrc
  5540  1394  0CCA               	rrf	??___fttol+2,f
  5541  1395  0CC9               	rrf	??___fttol+1,f
  5542  1396  0CC8               	rrf	??___fttol,f
  5543  1397                     u3570:
  5544  1397  3EFF               	addlw	-1
  5545  1398  1D03               	skipz
  5546  1399  2B93               	goto	u3575
  5547  139A  0848               	movf	??___fttol,w
  5548  139B  00CB               	movwf	??___fttol+3
  5549  139C  084B               	movf	??___fttol+3,w
  5550  139D  00CC               	movwf	___fttol@sign1
  5551  139E                     l2749:
  5552  139E  17C5               	bsf	___fttol@f1+1,7
  5553  139F                     l2751:
  5554  139F  30FF               	movlw	255
  5555  13A0  05C4               	andwf	___fttol@f1,f
  5556  13A1  30FF               	movlw	255
  5557  13A2  05C5               	andwf	___fttol@f1+1,f
  5558  13A3  3000               	movlw	0
  5559  13A4  05C6               	andwf	___fttol@f1+2,f
  5560  13A5                     l2753:
  5561  13A5  0844               	movf	___fttol@f1,w
  5562  13A6  00CD               	movwf	___fttol@lval
  5563  13A7  0845               	movf	___fttol@f1+1,w
  5564  13A8  00CE               	movwf	___fttol@lval+1
  5565  13A9  0846               	movf	___fttol@f1+2,w
  5566  13AA  00CF               	movwf	___fttol@lval+2
  5567  13AB  01D0               	clrf	___fttol@lval+3
  5568  13AC                     l2755:
  5569  13AC  308E               	movlw	142
  5570  13AD  02D1               	subwf	___fttol@exp1,f
  5571  13AE                     l2757:
  5572  13AE  1FD1               	btfss	___fttol@exp1,7
  5573  13AF  2BB1               	goto	u3581
  5574  13B0  2BB2               	goto	u3580
  5575  13B1                     u3581:
  5576  13B1  2BCC               	goto	l2767
  5577  13B2                     u3580:
  5578  13B2                     l2759:
  5579  13B2  0851               	movf	___fttol@exp1,w
  5580  13B3  3A80               	xorlw	128
  5581  13B4  3E8F               	addlw	143
  5582  13B5  1803               	skipnc
  5583  13B6  2BB8               	goto	u3591
  5584  13B7  2BB9               	goto	u3590
  5585  13B8                     u3591:
  5586  13B8  2BBA               	goto	l2765
  5587  13B9                     u3590:
  5588  13B9  2B83               	goto	l2743
  5589  13BA                     l2765:
  5590  13BA  3001               	movlw	1
  5591  13BB                     u3605:
  5592  13BB  1003               	clrc
  5593  13BC  0CD0               	rrf	___fttol@lval+3,f
  5594  13BD  0CCF               	rrf	___fttol@lval+2,f
  5595  13BE  0CCE               	rrf	___fttol@lval+1,f
  5596  13BF  0CCD               	rrf	___fttol@lval,f
  5597  13C0  3EFF               	addlw	-1
  5598  13C1  1D03               	skipz
  5599  13C2  2BBB               	goto	u3605
  5600  13C3  3001               	movlw	1
  5601  13C4  00C8               	movwf	??___fttol
  5602  13C5  0848               	movf	??___fttol,w
  5603  13C6  07D1               	addwf	___fttol@exp1,f
  5604  13C7  1D03               	btfss	3,2
  5605  13C8  2BCA               	goto	u3611
  5606  13C9  2BCB               	goto	u3610
  5607  13CA                     u3611:
  5608  13CA  2BBA               	goto	l2765
  5609  13CB                     u3610:
  5610  13CB  2BE3               	goto	l2775
  5611  13CC                     l2767:
  5612  13CC  3018               	movlw	24
  5613  13CD  0251               	subwf	___fttol@exp1,w
  5614  13CE  1C03               	skipc
  5615  13CF  2BD1               	goto	u3621
  5616  13D0  2BD2               	goto	u3620
  5617  13D1                     u3621:
  5618  13D1  2BDE               	goto	l762
  5619  13D2                     u3620:
  5620  13D2  2B83               	goto	l2743
  5621  13D3                     l2773:
  5622  13D3  3001               	movlw	1
  5623  13D4  00C8               	movwf	??___fttol
  5624  13D5                     u3635:
  5625  13D5  1003               	clrc
  5626  13D6  0DCD               	rlf	___fttol@lval,f
  5627  13D7  0DCE               	rlf	___fttol@lval+1,f
  5628  13D8  0DCF               	rlf	___fttol@lval+2,f
  5629  13D9  0DD0               	rlf	___fttol@lval+3,f
  5630  13DA  0BC8               	decfsz	??___fttol,f
  5631  13DB  2BD5               	goto	u3635
  5632  13DC  3001               	movlw	1
  5633  13DD  02D1               	subwf	___fttol@exp1,f
  5634  13DE                     l762:
  5635  13DE  0851               	movf	___fttol@exp1,w
  5636  13DF  1D03               	btfss	3,2
  5637  13E0  2BE2               	goto	u3641
  5638  13E1  2BE3               	goto	u3640
  5639  13E2                     u3641:
  5640  13E2  2BD3               	goto	l2773
  5641  13E3                     u3640:
  5642  13E3                     l2775:
  5643  13E3  084C               	movf	___fttol@sign1,w
  5644  13E4  1903               	btfsc	3,2
  5645  13E5  2BE7               	goto	u3651
  5646  13E6  2BE8               	goto	u3650
  5647  13E7                     u3651:
  5648  13E7  2BF3               	goto	l2779
  5649  13E8                     u3650:
  5650  13E8                     l2777:
  5651  13E8  09CD               	comf	___fttol@lval,f
  5652  13E9  09CE               	comf	___fttol@lval+1,f
  5653  13EA  09CF               	comf	___fttol@lval+2,f
  5654  13EB  09D0               	comf	___fttol@lval+3,f
  5655  13EC  0ACD               	incf	___fttol@lval,f
  5656  13ED  1903               	skipnz
  5657  13EE  0ACE               	incf	___fttol@lval+1,f
  5658  13EF  1903               	skipnz
  5659  13F0  0ACF               	incf	___fttol@lval+2,f
  5660  13F1  1903               	skipnz
  5661  13F2  0AD0               	incf	___fttol@lval+3,f
  5662  13F3                     l2779:
  5663  13F3  0850               	movf	___fttol@lval+3,w
  5664  13F4  00C7               	movwf	?___fttol+3
  5665  13F5  084F               	movf	___fttol@lval+2,w
  5666  13F6  00C6               	movwf	?___fttol+2
  5667  13F7  084E               	movf	___fttol@lval+1,w
  5668  13F8  00C5               	movwf	?___fttol+1
  5669  13F9  084D               	movf	___fttol@lval,w
  5670  13FA  00C4               	movwf	?___fttol
  5671  13FB                     l755:
  5672  13FB  0008               	return
  5673  13FC                     __end_of___fttol:
  5674                           
  5675                           	psect	text17
  5676  1E31                     __ptext17:	
  5677 ;; *************** function ___ftsub *****************
  5678 ;; Defined at:
  5679 ;;		line 17 in file "D:\Microchip\xc8\v2.31\pic\sources\c90\common\ftsub.c"
  5680 ;; Parameters:    Size  Location     Type
  5681 ;;  f2              3   56[BANK0 ] float 
  5682 ;;  f1              3   59[BANK0 ] float 
  5683 ;; Auto vars:     Size  Location     Type
  5684 ;;		None
  5685 ;; Return value:  Size  Location     Type
  5686 ;;                  3   56[BANK0 ] float 
  5687 ;; Registers used:
  5688 ;;		wreg, status,2, status,0, pclath, cstack
  5689 ;; Tracked objects:
  5690 ;;		On entry : 0/0
  5691 ;;		On exit  : 0/0
  5692 ;;		Unchanged: 0/0
  5693 ;; Data sizes:     COMMON   BANK0   BANK1   BANK3   BANK2
  5694 ;;      Params:         0       6       0       0       0
  5695 ;;      Locals:         0       0       0       0       0
  5696 ;;      Temps:          0       0       0       0       0
  5697 ;;      Totals:         0       6       0       0       0
  5698 ;;Total ram usage:        6 bytes
  5699 ;; Hardware stack levels used:    1
  5700 ;; Hardware stack levels required when called:    3
  5701 ;; This function calls:
  5702 ;;		___ftadd
  5703 ;; This function is called by:
  5704 ;;		_sprintf
  5705 ;; This function uses a non-reentrant model
  5706 ;;
  5707                           
  5708                           
  5709                           ;psect for function ___ftsub
  5710  1E31                     ___ftsub:
  5711  1E31                     l3631:	
  5712                           ;incstack = 0
  5713                           ; Regs used in ___ftsub: [wreg+status,2+status,0+pclath+cstack]
  5714                           
  5715  1E31  1283               	bcf	3,5	;RP0=0, select bank0
  5716  1E32  1303               	bcf	3,6	;RP1=0, select bank0
  5717  1E33  085A               	movf	___ftsub@f2+2,w
  5718  1E34  0459               	iorwf	___ftsub@f2+1,w
  5719  1E35  0458               	iorwf	___ftsub@f2,w
  5720  1E36  1903               	skipnz
  5721  1E37  2E39               	goto	u5181
  5722  1E38  2E3A               	goto	u5180
  5723  1E39                     u5181:
  5724  1E39  2E3C               	goto	l3635
  5725  1E3A                     u5180:
  5726  1E3A                     l3633:
  5727  1E3A  3080               	movlw	128
  5728  1E3B  06DA               	xorwf	___ftsub@f2+2,f
  5729  1E3C                     l3635:
  5730  1E3C  085B               	movf	___ftsub@f1,w
  5731  1E3D  00CB               	movwf	___ftadd@f1
  5732  1E3E  085C               	movf	___ftsub@f1+1,w
  5733  1E3F  00CC               	movwf	___ftadd@f1+1
  5734  1E40  085D               	movf	___ftsub@f1+2,w
  5735  1E41  00CD               	movwf	___ftadd@f1+2
  5736  1E42  0858               	movf	___ftsub@f2,w
  5737  1E43  00CE               	movwf	___ftadd@f2
  5738  1E44  0859               	movf	___ftsub@f2+1,w
  5739  1E45  00CF               	movwf	___ftadd@f2+1
  5740  1E46  085A               	movf	___ftsub@f2+2,w
  5741  1E47  00D0               	movwf	___ftadd@f2+2
  5742  1E48  160A  118A  26CA  160A  158A  	fcall	___ftadd
  5743  1E4D  1283               	bcf	3,5	;RP0=0, select bank0
  5744  1E4E  1303               	bcf	3,6	;RP1=0, select bank0
  5745  1E4F  084B               	movf	?___ftadd,w
  5746  1E50  00D8               	movwf	?___ftsub
  5747  1E51  084C               	movf	?___ftadd+1,w
  5748  1E52  00D9               	movwf	?___ftsub+1
  5749  1E53  084D               	movf	?___ftadd+2,w
  5750  1E54  00DA               	movwf	?___ftsub+2
  5751  1E55                     l751:
  5752  1E55  0008               	return
  5753  1E56                     __end_of___ftsub:
  5754                           
  5755                           	psect	text18
  5756  16CA                     __ptext18:	
  5757 ;; *************** function ___ftadd *****************
  5758 ;; Defined at:
  5759 ;;		line 86 in file "D:\Microchip\xc8\v2.31\pic\sources\c90\common\ftadd.c"
  5760 ;; Parameters:    Size  Location     Type
  5761 ;;  f1              3   43[BANK0 ] float 
  5762 ;;  f2              3   46[BANK0 ] float 
  5763 ;; Auto vars:     Size  Location     Type
  5764 ;;  exp1            1   55[BANK0 ] unsigned char 
  5765 ;;  exp2            1   54[BANK0 ] unsigned char 
  5766 ;;  sign            1   53[BANK0 ] unsigned char 
  5767 ;; Return value:  Size  Location     Type
  5768 ;;                  3   43[BANK0 ] float 
  5769 ;; Registers used:
  5770 ;;		wreg, status,2, status,0, pclath, cstack
  5771 ;; Tracked objects:
  5772 ;;		On entry : 0/0
  5773 ;;		On exit  : 0/0
  5774 ;;		Unchanged: 0/0
  5775 ;; Data sizes:     COMMON   BANK0   BANK1   BANK3   BANK2
  5776 ;;      Params:         0       6       0       0       0
  5777 ;;      Locals:         0       3       0       0       0
  5778 ;;      Temps:          0       4       0       0       0
  5779 ;;      Totals:         0      13       0       0       0
  5780 ;;Total ram usage:       13 bytes
  5781 ;; Hardware stack levels used:    1
  5782 ;; Hardware stack levels required when called:    2
  5783 ;; This function calls:
  5784 ;;		___ftpack
  5785 ;; This function is called by:
  5786 ;;		_sprintf
  5787 ;;		___ftsub
  5788 ;; This function uses a non-reentrant model
  5789 ;;
  5790                           
  5791                           
  5792                           ;psect for function ___ftadd
  5793  16CA                     ___ftadd:
  5794  16CA                     l3335:	
  5795                           ;incstack = 0
  5796                           ; Regs used in ___ftadd: [wreg+status,2+status,0+pclath+cstack]
  5797                           
  5798  16CA  1283               	bcf	3,5	;RP0=0, select bank0
  5799  16CB  1303               	bcf	3,6	;RP1=0, select bank0
  5800  16CC  084B               	movf	___ftadd@f1,w
  5801  16CD  00D1               	movwf	??___ftadd
  5802  16CE  084C               	movf	___ftadd@f1+1,w
  5803  16CF  00D2               	movwf	??___ftadd+1
  5804  16D0  084D               	movf	___ftadd@f1+2,w
  5805  16D1  00D3               	movwf	??___ftadd+2
  5806  16D2  1003               	clrc
  5807  16D3  0D52               	rlf	??___ftadd+1,w
  5808  16D4  0D53               	rlf	??___ftadd+2,w
  5809  16D5  00D4               	movwf	??___ftadd+3
  5810  16D6  0854               	movf	??___ftadd+3,w
  5811  16D7  00D7               	movwf	___ftadd@exp1
  5812  16D8  084E               	movf	___ftadd@f2,w
  5813  16D9  00D1               	movwf	??___ftadd
  5814  16DA  084F               	movf	___ftadd@f2+1,w
  5815  16DB  00D2               	movwf	??___ftadd+1
  5816  16DC  0850               	movf	___ftadd@f2+2,w
  5817  16DD  00D3               	movwf	??___ftadd+2
  5818  16DE  1003               	clrc
  5819  16DF  0D52               	rlf	??___ftadd+1,w
  5820  16E0  0D53               	rlf	??___ftadd+2,w
  5821  16E1  00D4               	movwf	??___ftadd+3
  5822  16E2  0854               	movf	??___ftadd+3,w
  5823  16E3  00D6               	movwf	___ftadd@exp2
  5824  16E4  0857               	movf	___ftadd@exp1,w
  5825  16E5  1903               	btfsc	3,2
  5826  16E6  2EE8               	goto	u4521
  5827  16E7  2EE9               	goto	u4520
  5828  16E8                     u4521:
  5829  16E8  2EF9               	goto	l3341
  5830  16E9                     u4520:
  5831  16E9                     l3337:
  5832  16E9  0856               	movf	___ftadd@exp2,w
  5833  16EA  0257               	subwf	___ftadd@exp1,w
  5834  16EB  1803               	skipnc
  5835  16EC  2EEE               	goto	u4531
  5836  16ED  2EEF               	goto	u4530
  5837  16EE                     u4531:
  5838  16EE  2F00               	goto	l3345
  5839  16EF                     u4530:
  5840  16EF                     l3339:
  5841  16EF  0856               	movf	___ftadd@exp2,w
  5842  16F0  00D1               	movwf	??___ftadd
  5843  16F1  0857               	movf	___ftadd@exp1,w
  5844  16F2  02D1               	subwf	??___ftadd,f
  5845  16F3  3019               	movlw	25
  5846  16F4  0251               	subwf	??___ftadd,w
  5847  16F5  1C03               	skipc
  5848  16F6  2EF8               	goto	u4541
  5849  16F7  2EF9               	goto	u4540
  5850  16F8                     u4541:
  5851  16F8  2F00               	goto	l3345
  5852  16F9                     u4540:
  5853  16F9                     l3341:
  5854  16F9  084E               	movf	___ftadd@f2,w
  5855  16FA  00CB               	movwf	?___ftadd
  5856  16FB  084F               	movf	___ftadd@f2+1,w
  5857  16FC  00CC               	movwf	?___ftadd+1
  5858  16FD  0850               	movf	___ftadd@f2+2,w
  5859  16FE  00CD               	movwf	?___ftadd+2
  5860  16FF  2FFF               	goto	l671
  5861  1700                     l3345:
  5862  1700  0856               	movf	___ftadd@exp2,w
  5863  1701  1903               	btfsc	3,2
  5864  1702  2F04               	goto	u4551
  5865  1703  2F05               	goto	u4550
  5866  1704                     u4551:
  5867  1704  2F15               	goto	l674
  5868  1705                     u4550:
  5869  1705                     l3347:
  5870  1705  0857               	movf	___ftadd@exp1,w
  5871  1706  0256               	subwf	___ftadd@exp2,w
  5872  1707  1803               	skipnc
  5873  1708  2F0A               	goto	u4561
  5874  1709  2F0B               	goto	u4560
  5875  170A                     u4561:
  5876  170A  2F16               	goto	l3351
  5877  170B                     u4560:
  5878  170B                     l3349:
  5879  170B  0857               	movf	___ftadd@exp1,w
  5880  170C  00D1               	movwf	??___ftadd
  5881  170D  0856               	movf	___ftadd@exp2,w
  5882  170E  02D1               	subwf	??___ftadd,f
  5883  170F  3019               	movlw	25
  5884  1710  0251               	subwf	??___ftadd,w
  5885  1711  1C03               	skipc
  5886  1712  2F14               	goto	u4571
  5887  1713  2F15               	goto	u4570
  5888  1714                     u4571:
  5889  1714  2F16               	goto	l3351
  5890  1715                     u4570:
  5891  1715                     l674:
  5892  1715  2FFF               	goto	l671
  5893  1716                     l3351:
  5894  1716  3006               	movlw	6
  5895  1717  00D1               	movwf	??___ftadd
  5896  1718  0851               	movf	??___ftadd,w
  5897  1719  00D5               	movwf	___ftadd@sign
  5898  171A                     l3353:
  5899  171A  1FCD               	btfss	___ftadd@f1+2,7
  5900  171B  2F1D               	goto	u4581
  5901  171C  2F1E               	goto	u4580
  5902  171D                     u4581:
  5903  171D  2F1F               	goto	l675
  5904  171E                     u4580:
  5905  171E                     l3355:
  5906  171E  17D5               	bsf	___ftadd@sign,7
  5907  171F                     l675:
  5908  171F  1FD0               	btfss	___ftadd@f2+2,7
  5909  1720  2F22               	goto	u4591
  5910  1721  2F23               	goto	u4590
  5911  1722                     u4591:
  5912  1722  2F24               	goto	l676
  5913  1723                     u4590:
  5914  1723                     l3357:
  5915  1723  1755               	bsf	___ftadd@sign,6
  5916  1724                     l676:
  5917  1724  17CC               	bsf	___ftadd@f1+1,7
  5918  1725                     l3359:
  5919  1725  30FF               	movlw	255
  5920  1726  05CB               	andwf	___ftadd@f1,f
  5921  1727  30FF               	movlw	255
  5922  1728  05CC               	andwf	___ftadd@f1+1,f
  5923  1729  3000               	movlw	0
  5924  172A  05CD               	andwf	___ftadd@f1+2,f
  5925  172B                     l3361:
  5926  172B  17CF               	bsf	___ftadd@f2+1,7
  5927  172C  30FF               	movlw	255
  5928  172D  05CE               	andwf	___ftadd@f2,f
  5929  172E  30FF               	movlw	255
  5930  172F  05CF               	andwf	___ftadd@f2+1,f
  5931  1730  3000               	movlw	0
  5932  1731  05D0               	andwf	___ftadd@f2+2,f
  5933  1732  0856               	movf	___ftadd@exp2,w
  5934  1733  0257               	subwf	___ftadd@exp1,w
  5935  1734  1803               	skipnc
  5936  1735  2F37               	goto	u4601
  5937  1736  2F38               	goto	u4600
  5938  1737                     u4601:
  5939  1737  2F64               	goto	l3373
  5940  1738                     u4600:
  5941  1738                     l3363:
  5942  1738  3001               	movlw	1
  5943  1739                     u4615:
  5944  1739  1003               	clrc
  5945  173A  0DCE               	rlf	___ftadd@f2,f
  5946  173B  0DCF               	rlf	___ftadd@f2+1,f
  5947  173C  0DD0               	rlf	___ftadd@f2+2,f
  5948  173D  3EFF               	addlw	-1
  5949  173E  1D03               	skipz
  5950  173F  2F39               	goto	u4615
  5951  1740  3001               	movlw	1
  5952  1741  02D6               	subwf	___ftadd@exp2,f
  5953  1742                     l3365:
  5954  1742  0856               	movf	___ftadd@exp2,w
  5955  1743  0657               	xorwf	___ftadd@exp1,w
  5956  1744  1903               	skipnz
  5957  1745  2F47               	goto	u4621
  5958  1746  2F48               	goto	u4620
  5959  1747                     u4621:
  5960  1747  2F5D               	goto	l3371
  5961  1748                     u4620:
  5962  1748                     l3367:
  5963  1748  3001               	movlw	1
  5964  1749  02D5               	subwf	___ftadd@sign,f
  5965  174A  0855               	movf	___ftadd@sign,w
  5966  174B  3907               	andlw	7
  5967  174C  1D03               	btfss	3,2
  5968  174D  2F4F               	goto	u4631
  5969  174E  2F50               	goto	u4630
  5970  174F                     u4631:
  5971  174F  2F38               	goto	l3363
  5972  1750                     u4630:
  5973  1750  2F5D               	goto	l3371
  5974  1751                     l3369:
  5975  1751  3001               	movlw	1
  5976  1752                     u4645:
  5977  1752  1003               	clrc
  5978  1753  0CCD               	rrf	___ftadd@f1+2,f
  5979  1754  0CCC               	rrf	___ftadd@f1+1,f
  5980  1755  0CCB               	rrf	___ftadd@f1,f
  5981  1756  3EFF               	addlw	-1
  5982  1757  1D03               	skipz
  5983  1758  2F52               	goto	u4645
  5984  1759  3001               	movlw	1
  5985  175A  00D1               	movwf	??___ftadd
  5986  175B  0851               	movf	??___ftadd,w
  5987  175C  07D7               	addwf	___ftadd@exp1,f
  5988  175D                     l3371:
  5989  175D  0857               	movf	___ftadd@exp1,w
  5990  175E  0656               	xorwf	___ftadd@exp2,w
  5991  175F  1D03               	skipz
  5992  1760  2F62               	goto	u4651
  5993  1761  2F63               	goto	u4650
  5994  1762                     u4651:
  5995  1762  2F51               	goto	l3369
  5996  1763                     u4650:
  5997  1763  2F95               	goto	l685
  5998  1764                     l3373:
  5999  1764  0857               	movf	___ftadd@exp1,w
  6000  1765  0256               	subwf	___ftadd@exp2,w
  6001  1766  1803               	skipnc
  6002  1767  2F69               	goto	u4661
  6003  1768  2F6A               	goto	u4660
  6004  1769                     u4661:
  6005  1769  2F95               	goto	l685
  6006  176A                     u4660:
  6007  176A                     l3375:
  6008  176A  3001               	movlw	1
  6009  176B                     u4675:
  6010  176B  1003               	clrc
  6011  176C  0DCB               	rlf	___ftadd@f1,f
  6012  176D  0DCC               	rlf	___ftadd@f1+1,f
  6013  176E  0DCD               	rlf	___ftadd@f1+2,f
  6014  176F  3EFF               	addlw	-1
  6015  1770  1D03               	skipz
  6016  1771  2F6B               	goto	u4675
  6017  1772  3001               	movlw	1
  6018  1773  02D7               	subwf	___ftadd@exp1,f
  6019  1774                     l3377:
  6020  1774  0856               	movf	___ftadd@exp2,w
  6021  1775  0657               	xorwf	___ftadd@exp1,w
  6022  1776  1903               	skipnz
  6023  1777  2F79               	goto	u4681
  6024  1778  2F7A               	goto	u4680
  6025  1779                     u4681:
  6026  1779  2F8F               	goto	l3383
  6027  177A                     u4680:
  6028  177A                     l3379:
  6029  177A  3001               	movlw	1
  6030  177B  02D5               	subwf	___ftadd@sign,f
  6031  177C  0855               	movf	___ftadd@sign,w
  6032  177D  3907               	andlw	7
  6033  177E  1D03               	btfss	3,2
  6034  177F  2F81               	goto	u4691
  6035  1780  2F82               	goto	u4690
  6036  1781                     u4691:
  6037  1781  2F6A               	goto	l3375
  6038  1782                     u4690:
  6039  1782  2F8F               	goto	l3383
  6040  1783                     l3381:
  6041  1783  3001               	movlw	1
  6042  1784                     u4705:
  6043  1784  1003               	clrc
  6044  1785  0CD0               	rrf	___ftadd@f2+2,f
  6045  1786  0CCF               	rrf	___ftadd@f2+1,f
  6046  1787  0CCE               	rrf	___ftadd@f2,f
  6047  1788  3EFF               	addlw	-1
  6048  1789  1D03               	skipz
  6049  178A  2F84               	goto	u4705
  6050  178B  3001               	movlw	1
  6051  178C  00D1               	movwf	??___ftadd
  6052  178D  0851               	movf	??___ftadd,w
  6053  178E  07D6               	addwf	___ftadd@exp2,f
  6054  178F                     l3383:
  6055  178F  0857               	movf	___ftadd@exp1,w
  6056  1790  0656               	xorwf	___ftadd@exp2,w
  6057  1791  1D03               	skipz
  6058  1792  2F94               	goto	u4711
  6059  1793  2F95               	goto	u4710
  6060  1794                     u4711:
  6061  1794  2F83               	goto	l3381
  6062  1795                     u4710:
  6063  1795                     l685:
  6064  1795  1FD5               	btfss	___ftadd@sign,7
  6065  1796  2F98               	goto	u4721
  6066  1797  2F99               	goto	u4720
  6067  1798                     u4721:
  6068  1798  2FA9               	goto	l3387
  6069  1799                     u4720:
  6070  1799                     l3385:
  6071  1799  30FF               	movlw	255
  6072  179A  06CB               	xorwf	___ftadd@f1,f
  6073  179B  30FF               	movlw	255
  6074  179C  06CC               	xorwf	___ftadd@f1+1,f
  6075  179D  30FF               	movlw	255
  6076  179E  06CD               	xorwf	___ftadd@f1+2,f
  6077  179F  3001               	movlw	1
  6078  17A0  07CB               	addwf	___ftadd@f1,f
  6079  17A1  3000               	movlw	0
  6080  17A2  1803               	skipnc
  6081  17A3  3001               	movlw	1
  6082  17A4  07CC               	addwf	___ftadd@f1+1,f
  6083  17A5  3000               	movlw	0
  6084  17A6  1803               	skipnc
  6085  17A7  3001               	movlw	1
  6086  17A8  07CD               	addwf	___ftadd@f1+2,f
  6087  17A9                     l3387:
  6088  17A9  1F55               	btfss	___ftadd@sign,6
  6089  17AA  2FAC               	goto	u4731
  6090  17AB  2FAD               	goto	u4730
  6091  17AC                     u4731:
  6092  17AC  2FBD               	goto	l3391
  6093  17AD                     u4730:
  6094  17AD                     l3389:
  6095  17AD  30FF               	movlw	255
  6096  17AE  06CE               	xorwf	___ftadd@f2,f
  6097  17AF  30FF               	movlw	255
  6098  17B0  06CF               	xorwf	___ftadd@f2+1,f
  6099  17B1  30FF               	movlw	255
  6100  17B2  06D0               	xorwf	___ftadd@f2+2,f
  6101  17B3  3001               	movlw	1
  6102  17B4  07CE               	addwf	___ftadd@f2,f
  6103  17B5  3000               	movlw	0
  6104  17B6  1803               	skipnc
  6105  17B7  3001               	movlw	1
  6106  17B8  07CF               	addwf	___ftadd@f2+1,f
  6107  17B9  3000               	movlw	0
  6108  17BA  1803               	skipnc
  6109  17BB  3001               	movlw	1
  6110  17BC  07D0               	addwf	___ftadd@f2+2,f
  6111  17BD                     l3391:
  6112  17BD  01D5               	clrf	___ftadd@sign
  6113  17BE                     l3393:
  6114  17BE  084B               	movf	___ftadd@f1,w
  6115  17BF  07CE               	addwf	___ftadd@f2,f
  6116  17C0  084C               	movf	___ftadd@f1+1,w
  6117  17C1  1103               	clrz
  6118  17C2  1803               	skipnc
  6119  17C3  0A4C               	incf	___ftadd@f1+1,w
  6120  17C4  1903               	skipnz
  6121  17C5  2FC7               	goto	u4741
  6122  17C6  07CF               	addwf	___ftadd@f2+1,f
  6123  17C7                     u4741:
  6124  17C7  084D               	movf	___ftadd@f1+2,w
  6125  17C8  1103               	clrz
  6126  17C9  1803               	skipnc
  6127  17CA  0A4D               	incf	___ftadd@f1+2,w
  6128  17CB  1903               	skipnz
  6129  17CC  2FCE               	goto	u4742
  6130  17CD  07D0               	addwf	___ftadd@f2+2,f
  6131  17CE                     u4742:
  6132  17CE                     l3395:
  6133  17CE  1FD0               	btfss	___ftadd@f2+2,7
  6134  17CF  2FD1               	goto	u4751
  6135  17D0  2FD2               	goto	u4750
  6136  17D1                     u4751:
  6137  17D1  2FE4               	goto	l3401
  6138  17D2                     u4750:
  6139  17D2                     l3397:
  6140  17D2  30FF               	movlw	255
  6141  17D3  06CE               	xorwf	___ftadd@f2,f
  6142  17D4  30FF               	movlw	255
  6143  17D5  06CF               	xorwf	___ftadd@f2+1,f
  6144  17D6  30FF               	movlw	255
  6145  17D7  06D0               	xorwf	___ftadd@f2+2,f
  6146  17D8  3001               	movlw	1
  6147  17D9  07CE               	addwf	___ftadd@f2,f
  6148  17DA  3000               	movlw	0
  6149  17DB  1803               	skipnc
  6150  17DC  3001               	movlw	1
  6151  17DD  07CF               	addwf	___ftadd@f2+1,f
  6152  17DE  3000               	movlw	0
  6153  17DF  1803               	skipnc
  6154  17E0  3001               	movlw	1
  6155  17E1  07D0               	addwf	___ftadd@f2+2,f
  6156  17E2                     l3399:
  6157  17E2  01D5               	clrf	___ftadd@sign
  6158  17E3  0AD5               	incf	___ftadd@sign,f
  6159  17E4                     l3401:
  6160  17E4  084E               	movf	___ftadd@f2,w
  6161  17E5  00F2               	movwf	___ftpack@arg
  6162  17E6  084F               	movf	___ftadd@f2+1,w
  6163  17E7  00F3               	movwf	___ftpack@arg+1
  6164  17E8  0850               	movf	___ftadd@f2+2,w
  6165  17E9  00F4               	movwf	___ftpack@arg+2
  6166  17EA  0857               	movf	___ftadd@exp1,w
  6167  17EB  00D1               	movwf	??___ftadd
  6168  17EC  0851               	movf	??___ftadd,w
  6169  17ED  00F5               	movwf	___ftpack@exp
  6170  17EE  0855               	movf	___ftadd@sign,w
  6171  17EF  00D2               	movwf	??___ftadd+1
  6172  17F0  0852               	movf	??___ftadd+1,w
  6173  17F1  00F6               	movwf	___ftpack@sign
  6174  17F2  160A  118A  22F4  160A  118A  	fcall	___ftpack
  6175  17F7  0872               	movf	?___ftpack,w
  6176  17F8  1283               	bcf	3,5	;RP0=0, select bank0
  6177  17F9  1303               	bcf	3,6	;RP1=0, select bank0
  6178  17FA  00CB               	movwf	?___ftadd
  6179  17FB  0873               	movf	?___ftpack+1,w
  6180  17FC  00CC               	movwf	?___ftadd+1
  6181  17FD  0874               	movf	?___ftpack+2,w
  6182  17FE  00CD               	movwf	?___ftadd+2
  6183  17FF                     l671:
  6184  17FF  0008               	return
  6185  1800                     __end_of___ftadd:
  6186                           
  6187                           	psect	text19
  6188  1D84                     __ptext19:	
  6189 ;; *************** function ___ftneg *****************
  6190 ;; Defined at:
  6191 ;;		line 15 in file "D:\Microchip\xc8\v2.31\pic\sources\c90\common\ftneg.c"
  6192 ;; Parameters:    Size  Location     Type
  6193 ;;  f1              3    2[COMMON] float 
  6194 ;; Auto vars:     Size  Location     Type
  6195 ;;		None
  6196 ;; Return value:  Size  Location     Type
  6197 ;;                  3    2[COMMON] float 
  6198 ;; Registers used:
  6199 ;;		wreg
  6200 ;; Tracked objects:
  6201 ;;		On entry : 0/0
  6202 ;;		On exit  : 0/0
  6203 ;;		Unchanged: 0/0
  6204 ;; Data sizes:     COMMON   BANK0   BANK1   BANK3   BANK2
  6205 ;;      Params:         3       0       0       0       0
  6206 ;;      Locals:         0       0       0       0       0
  6207 ;;      Temps:          0       0       0       0       0
  6208 ;;      Totals:         3       0       0       0       0
  6209 ;;Total ram usage:        3 bytes
  6210 ;; Hardware stack levels used:    1
  6211 ;; Hardware stack levels required when called:    1
  6212 ;; This function calls:
  6213 ;;		Nothing
  6214 ;; This function is called by:
  6215 ;;		_sprintf
  6216 ;; This function uses a non-reentrant model
  6217 ;;
  6218                           
  6219                           
  6220                           ;psect for function ___ftneg
  6221  1D84                     ___ftneg:
  6222  1D84                     l2725:	
  6223                           ;incstack = 0
  6224                           ; Regs used in ___ftneg: [wreg]
  6225                           
  6226  1D84  0874               	movf	___ftneg@f1+2,w
  6227  1D85  0473               	iorwf	___ftneg@f1+1,w
  6228  1D86  0472               	iorwf	___ftneg@f1,w
  6229  1D87  1903               	skipnz
  6230  1D88  2D8A               	goto	u3541
  6231  1D89  2D8B               	goto	u3540
  6232  1D8A                     u3541:
  6233  1D8A  2D8D               	goto	l2729
  6234  1D8B                     u3540:
  6235  1D8B                     l2727:
  6236  1D8B  3080               	movlw	128
  6237  1D8C  06F4               	xorwf	___ftneg@f1+2,f
  6238  1D8D                     l2729:
  6239  1D8D                     l745:
  6240  1D8D  0008               	return
  6241  1D8E                     __end_of___ftneg:
  6242                           
  6243                           	psect	text20
  6244  1F02                     __ptext20:	
  6245 ;; *************** function ___ftge *****************
  6246 ;; Defined at:
  6247 ;;		line 4 in file "D:\Microchip\xc8\v2.31\pic\sources\c90\common\ftge.c"
  6248 ;; Parameters:    Size  Location     Type
  6249 ;;  ff1             3    2[COMMON] float 
  6250 ;;  ff2             3    5[COMMON] float 
  6251 ;; Auto vars:     Size  Location     Type
  6252 ;;		None
  6253 ;; Return value:  Size  Location     Type
  6254 ;;		None               void
  6255 ;; Registers used:
  6256 ;;		wreg, status,2, status,0
  6257 ;; Tracked objects:
  6258 ;;		On entry : 0/0
  6259 ;;		On exit  : 0/0
  6260 ;;		Unchanged: 0/0
  6261 ;; Data sizes:     COMMON   BANK0   BANK1   BANK3   BANK2
  6262 ;;      Params:         6       0       0       0       0
  6263 ;;      Locals:         0       0       0       0       0
  6264 ;;      Temps:          0       0       0       0       0
  6265 ;;      Totals:         6       0       0       0       0
  6266 ;;Total ram usage:        6 bytes
  6267 ;; Hardware stack levels used:    1
  6268 ;; Hardware stack levels required when called:    1
  6269 ;; This function calls:
  6270 ;;		Nothing
  6271 ;; This function is called by:
  6272 ;;		_sprintf
  6273 ;; This function uses a non-reentrant model
  6274 ;;
  6275                           
  6276                           
  6277                           ;psect for function ___ftge
  6278  1F02                     ___ftge:
  6279  1F02                     l2705:	
  6280                           ;incstack = 0
  6281                           ; Regs used in ___ftge: [wreg+status,2+status,0]
  6282                           
  6283  1F02  1FF4               	btfss	___ftge@ff1+2,7
  6284  1F03  2F05               	goto	u3511
  6285  1F04  2F06               	goto	u3510
  6286  1F05                     u3511:
  6287  1F05  2F13               	goto	l2709
  6288  1F06                     u3510:
  6289  1F06                     l2707:
  6290  1F06  0872               	movf	___ftge@ff1,w
  6291  1F07  3C00               	sublw	0
  6292  1F08  00F2               	movwf	___ftge@ff1
  6293  1F09  0873               	movf	___ftge@ff1+1,w
  6294  1F0A  1C03               	skipc
  6295  1F0B  0F73               	incfsz	___ftge@ff1+1,w
  6296  1F0C  3C00               	sublw	0
  6297  1F0D  00F3               	movwf	___ftge@ff1+1
  6298  1F0E  0874               	movf	___ftge@ff1+2,w
  6299  1F0F  1C03               	skipc
  6300  1F10  0F74               	incfsz	___ftge@ff1+2,w
  6301  1F11  3C80               	sublw	128
  6302  1F12  00F4               	movwf	___ftge@ff1+2
  6303  1F13                     l2709:
  6304  1F13  1FF7               	btfss	___ftge@ff2+2,7
  6305  1F14  2F16               	goto	u3521
  6306  1F15  2F17               	goto	u3520
  6307  1F16                     u3521:
  6308  1F16  2F24               	goto	l2713
  6309  1F17                     u3520:
  6310  1F17                     l2711:
  6311  1F17  0875               	movf	___ftge@ff2,w
  6312  1F18  3C00               	sublw	0
  6313  1F19  00F5               	movwf	___ftge@ff2
  6314  1F1A  0876               	movf	___ftge@ff2+1,w
  6315  1F1B  1C03               	skipc
  6316  1F1C  0F76               	incfsz	___ftge@ff2+1,w
  6317  1F1D  3C00               	sublw	0
  6318  1F1E  00F6               	movwf	___ftge@ff2+1
  6319  1F1F  0877               	movf	___ftge@ff2+2,w
  6320  1F20  1C03               	skipc
  6321  1F21  0F77               	incfsz	___ftge@ff2+2,w
  6322  1F22  3C80               	sublw	128
  6323  1F23  00F7               	movwf	___ftge@ff2+2
  6324  1F24                     l2713:
  6325  1F24  3080               	movlw	128
  6326  1F25  06F4               	xorwf	___ftge@ff1+2,f
  6327  1F26                     l2715:
  6328  1F26  3080               	movlw	128
  6329  1F27  06F7               	xorwf	___ftge@ff2+2,f
  6330  1F28                     l2717:
  6331  1F28  0877               	movf	___ftge@ff2+2,w
  6332  1F29  0274               	subwf	___ftge@ff1+2,w
  6333  1F2A  1D03               	skipz
  6334  1F2B  2F32               	goto	u3535
  6335  1F2C  0876               	movf	___ftge@ff2+1,w
  6336  1F2D  0273               	subwf	___ftge@ff1+1,w
  6337  1F2E  1D03               	skipz
  6338  1F2F  2F32               	goto	u3535
  6339  1F30  0875               	movf	___ftge@ff2,w
  6340  1F31  0272               	subwf	___ftge@ff1,w
  6341  1F32                     u3535:
  6342  1F32  1803               	skipnc
  6343  1F33  2F35               	goto	u3531
  6344  1F34  2F36               	goto	u3530
  6345  1F35                     u3531:
  6346  1F35  2F38               	goto	l2721
  6347  1F36                     u3530:
  6348  1F36                     l2719:
  6349  1F36  1003               	clrc
  6350  1F37  2F39               	goto	l728
  6351  1F38                     l2721:
  6352  1F38  1403               	setc
  6353  1F39                     l728:
  6354  1F39  0008               	return
  6355  1F3A                     __end_of___ftge:
  6356                           
  6357                           	psect	text21
  6358  1E0D                     __ptext21:	
  6359 ;; *************** function _setup *****************
  6360 ;; Defined at:
  6361 ;;		line 165 in file "lab3_main.c"
  6362 ;; Parameters:    Size  Location     Type
  6363 ;;		None
  6364 ;; Auto vars:     Size  Location     Type
  6365 ;;		None
  6366 ;; Return value:  Size  Location     Type
  6367 ;;                  1    wreg      void 
  6368 ;; Registers used:
  6369 ;;		wreg, status,2
  6370 ;; Tracked objects:
  6371 ;;		On entry : 0/0
  6372 ;;		On exit  : 0/0
  6373 ;;		Unchanged: 0/0
  6374 ;; Data sizes:     COMMON   BANK0   BANK1   BANK3   BANK2
  6375 ;;      Params:         0       0       0       0       0
  6376 ;;      Locals:         0       0       0       0       0
  6377 ;;      Temps:          0       0       0       0       0
  6378 ;;      Totals:         0       0       0       0       0
  6379 ;;Total ram usage:        0 bytes
  6380 ;; Hardware stack levels used:    1
  6381 ;; Hardware stack levels required when called:    1
  6382 ;; This function calls:
  6383 ;;		Nothing
  6384 ;; This function is called by:
  6385 ;;		_main
  6386 ;; This function uses a non-reentrant model
  6387 ;;
  6388                           
  6389                           
  6390                           ;psect for function _setup
  6391  1E0D                     _setup:
  6392  1E0D                     l2813:	
  6393                           ;incstack = 0
  6394                           ; Regs used in _setup: [wreg+status,2]
  6395                           
  6396                           
  6397                           ;lab3_main.c: 174:     TRISE = 0;
  6398  1E0D  1683               	bsf	3,5	;RP0=1, select bank1
  6399  1E0E  1303               	bcf	3,6	;RP1=0, select bank1
  6400  1E0F  0189               	clrf	9	;volatile
  6401                           
  6402                           ;lab3_main.c: 175:     PORTE = 0;
  6403  1E10  1283               	bcf	3,5	;RP0=0, select bank0
  6404  1E11  1303               	bcf	3,6	;RP1=0, select bank0
  6405  1E12  0189               	clrf	9	;volatile
  6406  1E13                     l2815:
  6407                           
  6408                           ;lab3_main.c: 176:     ANSEL = 0b00000011;
  6409  1E13  3003               	movlw	3
  6410  1E14  1683               	bsf	3,5	;RP0=1, select bank3
  6411  1E15  1703               	bsf	3,6	;RP1=1, select bank3
  6412  1E16  0088               	movwf	8	;volatile
  6413  1E17                     l2817:
  6414                           
  6415                           ;lab3_main.c: 177:     ANSELH = 0;
  6416  1E17  0189               	clrf	9	;volatile
  6417  1E18                     l2819:
  6418                           
  6419                           ;lab3_main.c: 178:     TRISB = 0;
  6420  1E18  1683               	bsf	3,5	;RP0=1, select bank1
  6421  1E19  1303               	bcf	3,6	;RP1=0, select bank1
  6422  1E1A  0186               	clrf	6	;volatile
  6423  1E1B                     l2821:
  6424                           
  6425                           ;lab3_main.c: 179:     PORTB = 0;
  6426  1E1B  1283               	bcf	3,5	;RP0=0, select bank0
  6427  1E1C  1303               	bcf	3,6	;RP1=0, select bank0
  6428  1E1D  0186               	clrf	6	;volatile
  6429                           
  6430                           ;lab3_main.c: 180:     TRISC = 0b10000000;
  6431  1E1E  3080               	movlw	128
  6432  1E1F  1683               	bsf	3,5	;RP0=1, select bank1
  6433  1E20  1303               	bcf	3,6	;RP1=0, select bank1
  6434  1E21  0087               	movwf	7	;volatile
  6435  1E22                     l2823:
  6436                           
  6437                           ;lab3_main.c: 181:     PORTC = 0;
  6438  1E22  1283               	bcf	3,5	;RP0=0, select bank0
  6439  1E23  1303               	bcf	3,6	;RP1=0, select bank0
  6440  1E24  0187               	clrf	7	;volatile
  6441  1E25                     l2825:
  6442                           
  6443                           ;lab3_main.c: 182:     TRISD = 0;
  6444  1E25  1683               	bsf	3,5	;RP0=1, select bank1
  6445  1E26  1303               	bcf	3,6	;RP1=0, select bank1
  6446  1E27  0188               	clrf	8	;volatile
  6447  1E28                     l2827:
  6448                           
  6449                           ;lab3_main.c: 183:     PORTD = 0;
  6450  1E28  1283               	bcf	3,5	;RP0=0, select bank0
  6451  1E29  1303               	bcf	3,6	;RP1=0, select bank0
  6452  1E2A  0188               	clrf	8	;volatile
  6453  1E2B                     l2829:
  6454                           
  6455                           ;lab3_main.c: 184:     PORTA = 0;
  6456  1E2B  0185               	clrf	5	;volatile
  6457                           
  6458                           ;lab3_main.c: 185:     TRISA = 0b00000011;
  6459  1E2C  3003               	movlw	3
  6460  1E2D  1683               	bsf	3,5	;RP0=1, select bank1
  6461  1E2E  1303               	bcf	3,6	;RP1=0, select bank1
  6462  1E2F  0085               	movwf	5	;volatile
  6463  1E30                     l93:
  6464  1E30  0008               	return
  6465  1E31                     __end_of_setup:
  6466                           
  6467                           	psect	text22
  6468  1DA7                     __ptext22:	
  6469 ;; *************** function _initADC *****************
  6470 ;; Defined at:
  6471 ;;		line 6 in file "ADC.c"
  6472 ;; Parameters:    Size  Location     Type
  6473 ;;		None
  6474 ;; Auto vars:     Size  Location     Type
  6475 ;;		None
  6476 ;; Return value:  Size  Location     Type
  6477 ;;                  1    wreg      void 
  6478 ;; Registers used:
  6479 ;;		wreg, status,2
  6480 ;; Tracked objects:
  6481 ;;		On entry : 0/0
  6482 ;;		On exit  : 0/0
  6483 ;;		Unchanged: 0/0
  6484 ;; Data sizes:     COMMON   BANK0   BANK1   BANK3   BANK2
  6485 ;;      Params:         0       0       0       0       0
  6486 ;;      Locals:         0       0       0       0       0
  6487 ;;      Temps:          0       0       0       0       0
  6488 ;;      Totals:         0       0       0       0       0
  6489 ;;Total ram usage:        0 bytes
  6490 ;; Hardware stack levels used:    1
  6491 ;; Hardware stack levels required when called:    1
  6492 ;; This function calls:
  6493 ;;		Nothing
  6494 ;; This function is called by:
  6495 ;;		_main
  6496 ;; This function uses a non-reentrant model
  6497 ;;
  6498                           
  6499                           
  6500                           ;psect for function _initADC
  6501  1DA7                     _initADC:
  6502  1DA7                     l2831:	
  6503                           ;incstack = 0
  6504                           ; Regs used in _initADC: [wreg+status,2]
  6505                           
  6506                           
  6507                           ;ADC.c: 12:     INTCONbits.PEIE = 1;
  6508  1DA7  170B               	bsf	11,6	;volatile
  6509                           
  6510                           ;ADC.c: 13:     PIE1bits.ADIE = 1;
  6511  1DA8  1683               	bsf	3,5	;RP0=1, select bank1
  6512  1DA9  1303               	bcf	3,6	;RP1=0, select bank1
  6513  1DAA  170C               	bsf	12,6	;volatile
  6514                           
  6515                           ;ADC.c: 14:     PIR1bits.ADIF = 0;
  6516  1DAB  1283               	bcf	3,5	;RP0=0, select bank0
  6517  1DAC  1303               	bcf	3,6	;RP1=0, select bank0
  6518  1DAD  130C               	bcf	12,6	;volatile
  6519  1DAE                     l2833:
  6520                           
  6521                           ;ADC.c: 15:     ADCON0 = 0b01000001;
  6522  1DAE  3041               	movlw	65
  6523  1DAF  009F               	movwf	31	;volatile
  6524  1DB0                     l2835:
  6525                           
  6526                           ;ADC.c: 16:     ADCON1 = 0b00000000;
  6527  1DB0  1683               	bsf	3,5	;RP0=1, select bank1
  6528  1DB1  1303               	bcf	3,6	;RP1=0, select bank1
  6529  1DB2  019F               	clrf	31	;volatile
  6530  1DB3                     l151:
  6531  1DB3  0008               	return
  6532  1DB4                     __end_of_initADC:
  6533                           
  6534                           	psect	text23
  6535  1EA4                     __ptext23:	
  6536 ;; *************** function _USART_Write_String *****************
  6537 ;; Defined at:
  6538 ;;		line 48 in file "USART.c"
  6539 ;; Parameters:    Size  Location     Type
  6540 ;;  a               2    3[COMMON] PTR unsigned char 
  6541 ;;		 -> pantalla(20), STR_1(19), 
  6542 ;; Auto vars:     Size  Location     Type
  6543 ;;  i               1    6[COMMON] unsigned char 
  6544 ;; Return value:  Size  Location     Type
  6545 ;;                  1    wreg      void 
  6546 ;; Registers used:
  6547 ;;		wreg, fsr0l, fsr0h, status,2, status,0, btemp+1, pclath, cstack
  6548 ;; Tracked objects:
  6549 ;;		On entry : 0/0
  6550 ;;		On exit  : 0/0
  6551 ;;		Unchanged: 0/0
  6552 ;; Data sizes:     COMMON   BANK0   BANK1   BANK3   BANK2
  6553 ;;      Params:         2       0       0       0       0
  6554 ;;      Locals:         1       0       0       0       0
  6555 ;;      Temps:          1       0       0       0       0
  6556 ;;      Totals:         4       0       0       0       0
  6557 ;;Total ram usage:        4 bytes
  6558 ;; Hardware stack levels used:    1
  6559 ;; Hardware stack levels required when called:    2
  6560 ;; This function calls:
  6561 ;;		_USART_Write
  6562 ;; This function is called by:
  6563 ;;		_main
  6564 ;; This function uses a non-reentrant model
  6565 ;;
  6566                           
  6567                           
  6568                           ;psect for function _USART_Write_String
  6569  1EA4                     _USART_Write_String:
  6570  1EA4                     l2873:	
  6571                           ;incstack = 0
  6572                           ; Regs used in _USART_Write_String: [wreg-fsr0h+status,2+status,0+btemp+1+pclath+cstack]
  6573                           
  6574                           
  6575                           ;USART.c: 49:     uint8_t i;;USART.c: 50:     for(i=0;a[i]!='\0';i++){
  6576  1EA4  01F6               	clrf	USART_Write_String@i
  6577  1EA5  2EBB               	goto	l2879
  6578  1EA6                     l2875:
  6579                           
  6580                           ;USART.c: 51:         USART_Write(a[i]);
  6581  1EA6  0876               	movf	USART_Write_String@i,w
  6582  1EA7  0773               	addwf	USART_Write_String@a,w
  6583  1EA8  0084               	movwf	4
  6584  1EA9  0874               	movf	USART_Write_String@a+1,w
  6585  1EAA  1803               	skipnc
  6586  1EAB  0A74               	incf	USART_Write_String@a+1,w
  6587  1EAC  00FF               	movwf	btemp+1
  6588  1EAD  160A  118A  2000  160A  158A  	fcall	stringtab
  6589  1EB2  160A  158A  258E  160A  158A  	fcall	_USART_Write
  6590  1EB7                     l2877:
  6591                           
  6592                           ;USART.c: 52:     }
  6593  1EB7  3001               	movlw	1
  6594  1EB8  00F5               	movwf	??_USART_Write_String
  6595  1EB9  0875               	movf	??_USART_Write_String,w
  6596  1EBA  07F6               	addwf	USART_Write_String@i,f
  6597  1EBB                     l2879:
  6598  1EBB  0876               	movf	USART_Write_String@i,w
  6599  1EBC  0773               	addwf	USART_Write_String@a,w
  6600  1EBD  0084               	movwf	4
  6601  1EBE  0874               	movf	USART_Write_String@a+1,w
  6602  1EBF  1803               	skipnc
  6603  1EC0  0A74               	incf	USART_Write_String@a+1,w
  6604  1EC1  1283               	bcf	3,5	;RP0=0, select bank0
  6605  1EC2  1303               	bcf	3,6	;RP1=0, select bank0
  6606  1EC3  00FF               	movwf	btemp+1
  6607  1EC4  160A  118A  2000  160A  158A  	fcall	stringtab
  6608  1EC9  3A00               	xorlw	0
  6609  1ECA  1D03               	skipz
  6610  1ECB  2ECD               	goto	u3751
  6611  1ECC  2ECE               	goto	u3750
  6612  1ECD                     u3751:
  6613  1ECD  2EA6               	goto	l2875
  6614  1ECE                     u3750:
  6615  1ECE                     l214:
  6616  1ECE  0008               	return
  6617  1ECF                     __end_of_USART_Write_String:
  6618                           
  6619                           	psect	text24
  6620  1D8E                     __ptext24:	
  6621 ;; *************** function _USART_Write *****************
  6622 ;; Defined at:
  6623 ;;		line 43 in file "USART.c"
  6624 ;; Parameters:    Size  Location     Type
  6625 ;;  a               1    wreg     unsigned char 
  6626 ;; Auto vars:     Size  Location     Type
  6627 ;;  a               1    2[COMMON] unsigned char 
  6628 ;; Return value:  Size  Location     Type
  6629 ;;                  1    wreg      void 
  6630 ;; Registers used:
  6631 ;;		wreg
  6632 ;; Tracked objects:
  6633 ;;		On entry : 0/0
  6634 ;;		On exit  : 0/0
  6635 ;;		Unchanged: 0/0
  6636 ;; Data sizes:     COMMON   BANK0   BANK1   BANK3   BANK2
  6637 ;;      Params:         0       0       0       0       0
  6638 ;;      Locals:         1       0       0       0       0
  6639 ;;      Temps:          0       0       0       0       0
  6640 ;;      Totals:         1       0       0       0       0
  6641 ;;Total ram usage:        1 bytes
  6642 ;; Hardware stack levels used:    1
  6643 ;; Hardware stack levels required when called:    1
  6644 ;; This function calls:
  6645 ;;		Nothing
  6646 ;; This function is called by:
  6647 ;;		_main
  6648 ;;		_USART_Write_String
  6649 ;; This function uses a non-reentrant model
  6650 ;;
  6651                           
  6652                           
  6653                           ;psect for function _USART_Write
  6654  1D8E                     _USART_Write:
  6655                           
  6656                           ;incstack = 0
  6657                           ; Regs used in _USART_Write: [wreg]
  6658                           ;USART_Write@a stored from wreg
  6659  1D8E  00F2               	movwf	USART_Write@a
  6660  1D8F                     l2409:
  6661  1D8F                     l205:	
  6662                           ;USART.c: 44:     while(!TRMT);
  6663                           
  6664  1D8F  1683               	bsf	3,5	;RP0=1, select bank1
  6665  1D90  1303               	bcf	3,6	;RP1=0, select bank1
  6666  1D91  1C98               	btfss	24,1	;volatile
  6667  1D92  2D94               	goto	u3041
  6668  1D93  2D95               	goto	u3040
  6669  1D94                     u3041:
  6670  1D94  2D8F               	goto	l205
  6671  1D95                     u3040:
  6672  1D95                     l2411:
  6673                           
  6674                           ;USART.c: 45:     TXREG=a;
  6675  1D95  0872               	movf	USART_Write@a,w
  6676  1D96  1283               	bcf	3,5	;RP0=0, select bank0
  6677  1D97  1303               	bcf	3,6	;RP1=0, select bank0
  6678  1D98  0099               	movwf	25	;volatile
  6679  1D99                     l208:
  6680  1D99  0008               	return
  6681  1D9A                     __end_of_USART_Write:
  6682                           
  6683                           	psect	text25
  6684  1D6A                     __ptext25:	
  6685 ;; *************** function _Set_Baud_Rate *****************
  6686 ;; Defined at:
  6687 ;;		line 11 in file "USART.c"
  6688 ;; Parameters:    Size  Location     Type
  6689 ;;		None
  6690 ;; Auto vars:     Size  Location     Type
  6691 ;;		None
  6692 ;; Return value:  Size  Location     Type
  6693 ;;                  1    wreg      void 
  6694 ;; Registers used:
  6695 ;;		wreg
  6696 ;; Tracked objects:
  6697 ;;		On entry : 0/0
  6698 ;;		On exit  : 0/0
  6699 ;;		Unchanged: 0/0
  6700 ;; Data sizes:     COMMON   BANK0   BANK1   BANK3   BANK2
  6701 ;;      Params:         0       0       0       0       0
  6702 ;;      Locals:         0       0       0       0       0
  6703 ;;      Temps:          0       0       0       0       0
  6704 ;;      Totals:         0       0       0       0       0
  6705 ;;Total ram usage:        0 bytes
  6706 ;; Hardware stack levels used:    1
  6707 ;; Hardware stack levels required when called:    1
  6708 ;; This function calls:
  6709 ;;		Nothing
  6710 ;; This function is called by:
  6711 ;;		_main
  6712 ;; This function uses a non-reentrant model
  6713 ;;
  6714                           
  6715                           
  6716                           ;psect for function _Set_Baud_Rate
  6717  1D6A                     _Set_Baud_Rate:
  6718  1D6A                     l2851:	
  6719                           ;incstack = 0
  6720                           ; Regs used in _Set_Baud_Rate: [wreg]
  6721                           
  6722                           
  6723                           ;USART.c: 12:     SPBRG = 12;
  6724  1D6A  300C               	movlw	12
  6725  1D6B  1683               	bsf	3,5	;RP0=1, select bank1
  6726  1D6C  1303               	bcf	3,6	;RP1=0, select bank1
  6727  1D6D  0099               	movwf	25	;volatile
  6728  1D6E                     l196:
  6729  1D6E  0008               	return
  6730  1D6F                     __end_of_Set_Baud_Rate:
  6731                           
  6732                           	psect	text26
  6733  10DD                     __ptext26:	
  6734 ;; *************** function _LeerADC *****************
  6735 ;; Defined at:
  6736 ;;		line 195 in file "lab3_main.c"
  6737 ;; Parameters:    Size  Location     Type
  6738 ;;  x               1    wreg     unsigned char 
  6739 ;; Auto vars:     Size  Location     Type
  6740 ;;  x               1   32[BANK0 ] unsigned char 
  6741 ;;  a               3   33[BANK0 ] float 
  6742 ;; Return value:  Size  Location     Type
  6743 ;;                  3   27[BANK0 ] float 
  6744 ;; Registers used:
  6745 ;;		wreg, fsr0l, fsr0h, status,2, status,0, pclath, cstack
  6746 ;; Tracked objects:
  6747 ;;		On entry : 0/0
  6748 ;;		On exit  : 0/0
  6749 ;;		Unchanged: 0/0
  6750 ;; Data sizes:     COMMON   BANK0   BANK1   BANK3   BANK2
  6751 ;;      Params:         0       3       0       0       0
  6752 ;;      Locals:         0       4       0       0       0
  6753 ;;      Temps:          0       2       0       0       0
  6754 ;;      Totals:         0       9       0       0       0
  6755 ;;Total ram usage:        9 bytes
  6756 ;; Hardware stack levels used:    1
  6757 ;; Hardware stack levels required when called:    3
  6758 ;; This function calls:
  6759 ;;		_ADC_Select
  6760 ;;		___awtoft
  6761 ;;		___ftmul
  6762 ;; This function is called by:
  6763 ;;		_main
  6764 ;; This function uses a non-reentrant model
  6765 ;;
  6766                           
  6767                           
  6768                           ;psect for function _LeerADC
  6769  10DD                     _LeerADC:
  6770                           
  6771                           ;incstack = 0
  6772                           ; Regs used in _LeerADC: [wreg-fsr0h+status,2+status,0+pclath+cstack]
  6773                           ;LeerADC@x stored from wreg
  6774  10DD  1283               	bcf	3,5	;RP0=0, select bank0
  6775  10DE  1303               	bcf	3,6	;RP1=0, select bank0
  6776  10DF  00C0               	movwf	LeerADC@x
  6777  10E0                     l3683:
  6778  10E0                     l3685:
  6779                           
  6780                           ;lab3_main.c: 197:     ADC_Select(x);
  6781  10E0  0840               	movf	LeerADC@x,w
  6782  10E1  120A  158A  2018  160A  118A  	fcall	_ADC_Select
  6783  10E6                     l3687:
  6784                           
  6785                           ;lab3_main.c: 198:     ADCON0bits.ADON=1;
  6786  10E6  1283               	bcf	3,5	;RP0=0, select bank0
  6787  10E7  1303               	bcf	3,6	;RP1=0, select bank0
  6788  10E8  141F               	bsf	31,0	;volatile
  6789  10E9                     l3689:
  6790                           
  6791                           ;lab3_main.c: 199:     _delay((unsigned long)((20)*(8000000/4000000.0)));
  6792  10E9  300C               	movlw	12
  6793  10EA  1283               	bcf	3,5	;RP0=0, select bank0
  6794  10EB  1303               	bcf	3,6	;RP1=0, select bank0
  6795  10EC  00BE               	movwf	??_LeerADC
  6796  10ED                     u5917:
  6797  10ED  0BBE               	decfsz	??_LeerADC,f
  6798  10EE  28ED               	goto	u5917
  6799  10EF  0000               	nop
  6800  10F0                     l3691:
  6801                           
  6802                           ;lab3_main.c: 200:     ADCON0bits.GO=1;
  6803  10F0  1283               	bcf	3,5	;RP0=0, select bank0
  6804  10F1  1303               	bcf	3,6	;RP1=0, select bank0
  6805  10F2  149F               	bsf	31,1	;volatile
  6806  10F3                     l96:	
  6807                           ;lab3_main.c: 201:     while(ADCON0bits.GO_DONE==1){};
  6808                           
  6809  10F3  189F               	btfsc	31,1	;volatile
  6810  10F4  28F6               	goto	u5271
  6811  10F5  28F7               	goto	u5270
  6812  10F6                     u5271:
  6813  10F6  28F3               	goto	l96
  6814  10F7                     u5270:
  6815  10F7                     l3693:
  6816                           
  6817                           ;lab3_main.c: 204:     a = ADRESH * 0.0196;
  6818  10F7  3090               	movlw	144
  6819  10F8  00AB               	movwf	___ftmul@f1
  6820  10F9  30A0               	movlw	160
  6821  10FA  00AC               	movwf	___ftmul@f1+1
  6822  10FB  303C               	movlw	60
  6823  10FC  00AD               	movwf	___ftmul@f1+2
  6824  10FD  081E               	movf	30,w	;volatile
  6825  10FE  00BE               	movwf	??_LeerADC
  6826  10FF  01BF               	clrf	??_LeerADC+1
  6827  1100  083E               	movf	??_LeerADC,w
  6828  1101  00A0               	movwf	___awtoft@c
  6829  1102  083F               	movf	??_LeerADC+1,w
  6830  1103  00A1               	movwf	___awtoft@c+1
  6831  1104  160A  158A  267B  160A  118A  	fcall	___awtoft
  6832  1109  1283               	bcf	3,5	;RP0=0, select bank0
  6833  110A  1303               	bcf	3,6	;RP1=0, select bank0
  6834  110B  0820               	movf	?___awtoft,w
  6835  110C  00AE               	movwf	___ftmul@f2
  6836  110D  0821               	movf	?___awtoft+1,w
  6837  110E  00AF               	movwf	___ftmul@f2+1
  6838  110F  0822               	movf	?___awtoft+2,w
  6839  1110  00B0               	movwf	___ftmul@f2+2
  6840  1111  160A  118A  24B9  160A  118A  	fcall	___ftmul
  6841  1116  1283               	bcf	3,5	;RP0=0, select bank0
  6842  1117  1303               	bcf	3,6	;RP1=0, select bank0
  6843  1118  082B               	movf	?___ftmul,w
  6844  1119  00C1               	movwf	LeerADC@a
  6845  111A  082C               	movf	?___ftmul+1,w
  6846  111B  00C2               	movwf	LeerADC@a+1
  6847  111C  082D               	movf	?___ftmul+2,w
  6848  111D  00C3               	movwf	LeerADC@a+2
  6849  111E                     l3695:
  6850                           
  6851                           ;lab3_main.c: 205:     return a;
  6852  111E  0841               	movf	LeerADC@a,w
  6853  111F  00BB               	movwf	?_LeerADC
  6854  1120  0842               	movf	LeerADC@a+1,w
  6855  1121  00BC               	movwf	?_LeerADC+1
  6856  1122  0843               	movf	LeerADC@a+2,w
  6857  1123  00BD               	movwf	?_LeerADC+2
  6858  1124                     l99:
  6859  1124  0008               	return
  6860  1125                     __end_of_LeerADC:
  6861                           
  6862                           	psect	text27
  6863  14B9                     __ptext27:	
  6864 ;; *************** function ___ftmul *****************
  6865 ;; Defined at:
  6866 ;;		line 62 in file "D:\Microchip\xc8\v2.31\pic\sources\c90\common\ftmul.c"
  6867 ;; Parameters:    Size  Location     Type
  6868 ;;  f1              3   11[BANK0 ] float 
  6869 ;;  f2              3   14[BANK0 ] float 
  6870 ;; Auto vars:     Size  Location     Type
  6871 ;;  f3_as_produc    3   22[BANK0 ] unsigned um
  6872 ;;  sign            1   26[BANK0 ] unsigned char 
  6873 ;;  cntr            1   25[BANK0 ] unsigned char 
  6874 ;;  exp             1   21[BANK0 ] unsigned char 
  6875 ;; Return value:  Size  Location     Type
  6876 ;;                  3   11[BANK0 ] float 
  6877 ;; Registers used:
  6878 ;;		wreg, status,2, status,0, pclath, cstack
  6879 ;; Tracked objects:
  6880 ;;		On entry : 0/0
  6881 ;;		On exit  : 0/0
  6882 ;;		Unchanged: 0/0
  6883 ;; Data sizes:     COMMON   BANK0   BANK1   BANK3   BANK2
  6884 ;;      Params:         0       6       0       0       0
  6885 ;;      Locals:         0       6       0       0       0
  6886 ;;      Temps:          0       4       0       0       0
  6887 ;;      Totals:         0      16       0       0       0
  6888 ;;Total ram usage:       16 bytes
  6889 ;; Hardware stack levels used:    1
  6890 ;; Hardware stack levels required when called:    2
  6891 ;; This function calls:
  6892 ;;		___ftpack
  6893 ;; This function is called by:
  6894 ;;		_LeerADC
  6895 ;;		_fround
  6896 ;;		_scale
  6897 ;;		_sprintf
  6898 ;; This function uses a non-reentrant model
  6899 ;;
  6900                           
  6901                           
  6902                           ;psect for function ___ftmul
  6903  14B9                     ___ftmul:
  6904  14B9                     l3405:	
  6905                           ;incstack = 0
  6906                           ; Regs used in ___ftmul: [wreg+status,2+status,0+pclath+cstack]
  6907                           
  6908  14B9  1283               	bcf	3,5	;RP0=0, select bank0
  6909  14BA  1303               	bcf	3,6	;RP1=0, select bank0
  6910  14BB  082B               	movf	___ftmul@f1,w
  6911  14BC  00B1               	movwf	??___ftmul
  6912  14BD  082C               	movf	___ftmul@f1+1,w
  6913  14BE  00B2               	movwf	??___ftmul+1
  6914  14BF  082D               	movf	___ftmul@f1+2,w
  6915  14C0  00B3               	movwf	??___ftmul+2
  6916  14C1  1003               	clrc
  6917  14C2  0D32               	rlf	??___ftmul+1,w
  6918  14C3  0D33               	rlf	??___ftmul+2,w
  6919  14C4  00B4               	movwf	??___ftmul+3
  6920  14C5  0834               	movf	??___ftmul+3,w
  6921  14C6  00B5               	movwf	___ftmul@exp
  6922  14C7  0835               	movf	___ftmul@exp,w
  6923  14C8  1D03               	btfss	3,2
  6924  14C9  2CCB               	goto	u4761
  6925  14CA  2CCC               	goto	u4760
  6926  14CB                     u4761:
  6927  14CB  2CD3               	goto	l3411
  6928  14CC                     u4760:
  6929  14CC                     l3407:
  6930  14CC  3000               	movlw	0
  6931  14CD  00AB               	movwf	?___ftmul
  6932  14CE  3000               	movlw	0
  6933  14CF  00AC               	movwf	?___ftmul+1
  6934  14D0  3000               	movlw	0
  6935  14D1  00AD               	movwf	?___ftmul+2
  6936  14D2  2D9D               	goto	l734
  6937  14D3                     l3411:
  6938  14D3  082E               	movf	___ftmul@f2,w
  6939  14D4  00B1               	movwf	??___ftmul
  6940  14D5  082F               	movf	___ftmul@f2+1,w
  6941  14D6  00B2               	movwf	??___ftmul+1
  6942  14D7  0830               	movf	___ftmul@f2+2,w
  6943  14D8  00B3               	movwf	??___ftmul+2
  6944  14D9  1003               	clrc
  6945  14DA  0D32               	rlf	??___ftmul+1,w
  6946  14DB  0D33               	rlf	??___ftmul+2,w
  6947  14DC  00B4               	movwf	??___ftmul+3
  6948  14DD  0834               	movf	??___ftmul+3,w
  6949  14DE  00BA               	movwf	___ftmul@sign
  6950  14DF  083A               	movf	___ftmul@sign,w
  6951  14E0  1D03               	btfss	3,2
  6952  14E1  2CE3               	goto	u4771
  6953  14E2  2CE4               	goto	u4770
  6954  14E3                     u4771:
  6955  14E3  2CEB               	goto	l3417
  6956  14E4                     u4770:
  6957  14E4                     l3413:
  6958  14E4  3000               	movlw	0
  6959  14E5  00AB               	movwf	?___ftmul
  6960  14E6  3000               	movlw	0
  6961  14E7  00AC               	movwf	?___ftmul+1
  6962  14E8  3000               	movlw	0
  6963  14E9  00AD               	movwf	?___ftmul+2
  6964  14EA  2D9D               	goto	l734
  6965  14EB                     l3417:
  6966  14EB  083A               	movf	___ftmul@sign,w
  6967  14EC  3E7B               	addlw	123
  6968  14ED  00B1               	movwf	??___ftmul
  6969  14EE  0831               	movf	??___ftmul,w
  6970  14EF  07B5               	addwf	___ftmul@exp,f
  6971  14F0  082B               	movf	___ftmul@f1,w
  6972  14F1  00B1               	movwf	??___ftmul
  6973  14F2  082C               	movf	___ftmul@f1+1,w
  6974  14F3  00B2               	movwf	??___ftmul+1
  6975  14F4  082D               	movf	___ftmul@f1+2,w
  6976  14F5  00B3               	movwf	??___ftmul+2
  6977  14F6  3010               	movlw	16
  6978  14F7                     u4785:
  6979  14F7  1003               	clrc
  6980  14F8  0CB3               	rrf	??___ftmul+2,f
  6981  14F9  0CB2               	rrf	??___ftmul+1,f
  6982  14FA  0CB1               	rrf	??___ftmul,f
  6983  14FB                     u4780:
  6984  14FB  3EFF               	addlw	-1
  6985  14FC  1D03               	skipz
  6986  14FD  2CF7               	goto	u4785
  6987  14FE  0831               	movf	??___ftmul,w
  6988  14FF  00B4               	movwf	??___ftmul+3
  6989  1500  0834               	movf	??___ftmul+3,w
  6990  1501  00BA               	movwf	___ftmul@sign
  6991  1502  082E               	movf	___ftmul@f2,w
  6992  1503  00B1               	movwf	??___ftmul
  6993  1504  082F               	movf	___ftmul@f2+1,w
  6994  1505  00B2               	movwf	??___ftmul+1
  6995  1506  0830               	movf	___ftmul@f2+2,w
  6996  1507  00B3               	movwf	??___ftmul+2
  6997  1508  3010               	movlw	16
  6998  1509                     u4795:
  6999  1509  1003               	clrc
  7000  150A  0CB3               	rrf	??___ftmul+2,f
  7001  150B  0CB2               	rrf	??___ftmul+1,f
  7002  150C  0CB1               	rrf	??___ftmul,f
  7003  150D                     u4790:
  7004  150D  3EFF               	addlw	-1
  7005  150E  1D03               	skipz
  7006  150F  2D09               	goto	u4795
  7007  1510  0831               	movf	??___ftmul,w
  7008  1511  00B4               	movwf	??___ftmul+3
  7009  1512  0834               	movf	??___ftmul+3,w
  7010  1513  06BA               	xorwf	___ftmul@sign,f
  7011  1514  3080               	movlw	128
  7012  1515  00B1               	movwf	??___ftmul
  7013  1516  0831               	movf	??___ftmul,w
  7014  1517  05BA               	andwf	___ftmul@sign,f
  7015  1518                     l3419:
  7016  1518  17AC               	bsf	___ftmul@f1+1,7
  7017  1519                     l3421:
  7018  1519  17AF               	bsf	___ftmul@f2+1,7
  7019  151A                     l3423:
  7020  151A  30FF               	movlw	255
  7021  151B  05AE               	andwf	___ftmul@f2,f
  7022  151C  30FF               	movlw	255
  7023  151D  05AF               	andwf	___ftmul@f2+1,f
  7024  151E  3000               	movlw	0
  7025  151F  05B0               	andwf	___ftmul@f2+2,f
  7026  1520                     l3425:
  7027  1520  3000               	movlw	0
  7028  1521  00B6               	movwf	___ftmul@f3_as_product
  7029  1522  3000               	movlw	0
  7030  1523  00B7               	movwf	___ftmul@f3_as_product+1
  7031  1524  3000               	movlw	0
  7032  1525  00B8               	movwf	___ftmul@f3_as_product+2
  7033  1526                     l3427:
  7034  1526  3007               	movlw	7
  7035  1527  00B1               	movwf	??___ftmul
  7036  1528  0831               	movf	??___ftmul,w
  7037  1529  00B9               	movwf	___ftmul@cntr
  7038  152A                     l3429:
  7039  152A  1C2B               	btfss	___ftmul@f1,0
  7040  152B  2D2D               	goto	u4801
  7041  152C  2D2E               	goto	u4800
  7042  152D                     u4801:
  7043  152D  2D3E               	goto	l3433
  7044  152E                     u4800:
  7045  152E                     l3431:
  7046  152E  082E               	movf	___ftmul@f2,w
  7047  152F  07B6               	addwf	___ftmul@f3_as_product,f
  7048  1530  082F               	movf	___ftmul@f2+1,w
  7049  1531  1103               	clrz
  7050  1532  1803               	skipnc
  7051  1533  0A2F               	incf	___ftmul@f2+1,w
  7052  1534  1903               	skipnz
  7053  1535  2D37               	goto	u4811
  7054  1536  07B7               	addwf	___ftmul@f3_as_product+1,f
  7055  1537                     u4811:
  7056  1537  0830               	movf	___ftmul@f2+2,w
  7057  1538  1103               	clrz
  7058  1539  1803               	skipnc
  7059  153A  0A30               	incf	___ftmul@f2+2,w
  7060  153B  1903               	skipnz
  7061  153C  2D3E               	goto	u4812
  7062  153D  07B8               	addwf	___ftmul@f3_as_product+2,f
  7063  153E                     u4812:
  7064  153E                     l3433:
  7065  153E  3001               	movlw	1
  7066  153F                     u4825:
  7067  153F  1003               	clrc
  7068  1540  0CAD               	rrf	___ftmul@f1+2,f
  7069  1541  0CAC               	rrf	___ftmul@f1+1,f
  7070  1542  0CAB               	rrf	___ftmul@f1,f
  7071  1543  3EFF               	addlw	-1
  7072  1544  1D03               	skipz
  7073  1545  2D3F               	goto	u4825
  7074  1546                     l3435:
  7075  1546  3001               	movlw	1
  7076  1547                     u4835:
  7077  1547  1003               	clrc
  7078  1548  0DAE               	rlf	___ftmul@f2,f
  7079  1549  0DAF               	rlf	___ftmul@f2+1,f
  7080  154A  0DB0               	rlf	___ftmul@f2+2,f
  7081  154B  3EFF               	addlw	-1
  7082  154C  1D03               	skipz
  7083  154D  2D47               	goto	u4835
  7084  154E                     l3437:
  7085  154E  3001               	movlw	1
  7086  154F  02B9               	subwf	___ftmul@cntr,f
  7087  1550  1D03               	btfss	3,2
  7088  1551  2D53               	goto	u4841
  7089  1552  2D54               	goto	u4840
  7090  1553                     u4841:
  7091  1553  2D2A               	goto	l3429
  7092  1554                     u4840:
  7093  1554                     l3439:
  7094  1554  3009               	movlw	9
  7095  1555  00B1               	movwf	??___ftmul
  7096  1556  0831               	movf	??___ftmul,w
  7097  1557  00B9               	movwf	___ftmul@cntr
  7098  1558                     l3441:
  7099  1558  1C2B               	btfss	___ftmul@f1,0
  7100  1559  2D5B               	goto	u4851
  7101  155A  2D5C               	goto	u4850
  7102  155B                     u4851:
  7103  155B  2D6C               	goto	l3445
  7104  155C                     u4850:
  7105  155C                     l3443:
  7106  155C  082E               	movf	___ftmul@f2,w
  7107  155D  07B6               	addwf	___ftmul@f3_as_product,f
  7108  155E  082F               	movf	___ftmul@f2+1,w
  7109  155F  1103               	clrz
  7110  1560  1803               	skipnc
  7111  1561  0A2F               	incf	___ftmul@f2+1,w
  7112  1562  1903               	skipnz
  7113  1563  2D65               	goto	u4861
  7114  1564  07B7               	addwf	___ftmul@f3_as_product+1,f
  7115  1565                     u4861:
  7116  1565  0830               	movf	___ftmul@f2+2,w
  7117  1566  1103               	clrz
  7118  1567  1803               	skipnc
  7119  1568  0A30               	incf	___ftmul@f2+2,w
  7120  1569  1903               	skipnz
  7121  156A  2D6C               	goto	u4862
  7122  156B  07B8               	addwf	___ftmul@f3_as_product+2,f
  7123  156C                     u4862:
  7124  156C                     l3445:
  7125  156C  3001               	movlw	1
  7126  156D                     u4875:
  7127  156D  1003               	clrc
  7128  156E  0CAD               	rrf	___ftmul@f1+2,f
  7129  156F  0CAC               	rrf	___ftmul@f1+1,f
  7130  1570  0CAB               	rrf	___ftmul@f1,f
  7131  1571  3EFF               	addlw	-1
  7132  1572  1D03               	skipz
  7133  1573  2D6D               	goto	u4875
  7134  1574                     l3447:
  7135  1574  3001               	movlw	1
  7136  1575                     u4885:
  7137  1575  1003               	clrc
  7138  1576  0CB8               	rrf	___ftmul@f3_as_product+2,f
  7139  1577  0CB7               	rrf	___ftmul@f3_as_product+1,f
  7140  1578  0CB6               	rrf	___ftmul@f3_as_product,f
  7141  1579  3EFF               	addlw	-1
  7142  157A  1D03               	skipz
  7143  157B  2D75               	goto	u4885
  7144  157C                     l3449:
  7145  157C  3001               	movlw	1
  7146  157D  02B9               	subwf	___ftmul@cntr,f
  7147  157E  1D03               	btfss	3,2
  7148  157F  2D81               	goto	u4891
  7149  1580  2D82               	goto	u4890
  7150  1581                     u4891:
  7151  1581  2D58               	goto	l3441
  7152  1582                     u4890:
  7153  1582                     l3451:
  7154  1582  0836               	movf	___ftmul@f3_as_product,w
  7155  1583  00F2               	movwf	___ftpack@arg
  7156  1584  0837               	movf	___ftmul@f3_as_product+1,w
  7157  1585  00F3               	movwf	___ftpack@arg+1
  7158  1586  0838               	movf	___ftmul@f3_as_product+2,w
  7159  1587  00F4               	movwf	___ftpack@arg+2
  7160  1588  0835               	movf	___ftmul@exp,w
  7161  1589  00B1               	movwf	??___ftmul
  7162  158A  0831               	movf	??___ftmul,w
  7163  158B  00F5               	movwf	___ftpack@exp
  7164  158C  083A               	movf	___ftmul@sign,w
  7165  158D  00B2               	movwf	??___ftmul+1
  7166  158E  0832               	movf	??___ftmul+1,w
  7167  158F  00F6               	movwf	___ftpack@sign
  7168  1590  160A  118A  22F4  160A  118A  	fcall	___ftpack
  7169  1595  0872               	movf	?___ftpack,w
  7170  1596  1283               	bcf	3,5	;RP0=0, select bank0
  7171  1597  1303               	bcf	3,6	;RP1=0, select bank0
  7172  1598  00AB               	movwf	?___ftmul
  7173  1599  0873               	movf	?___ftpack+1,w
  7174  159A  00AC               	movwf	?___ftmul+1
  7175  159B  0874               	movf	?___ftpack+2,w
  7176  159C  00AD               	movwf	?___ftmul+2
  7177  159D                     l734:
  7178  159D  0008               	return
  7179  159E                     __end_of___ftmul:
  7180                           
  7181                           	psect	text28
  7182  1E7B                     __ptext28:	
  7183 ;; *************** function ___awtoft *****************
  7184 ;; Defined at:
  7185 ;;		line 32 in file "D:\Microchip\xc8\v2.31\pic\sources\c90\common\awtoft.c"
  7186 ;; Parameters:    Size  Location     Type
  7187 ;;  c               2    0[BANK0 ] int 
  7188 ;; Auto vars:     Size  Location     Type
  7189 ;;  sign            1   10[COMMON] unsigned char 
  7190 ;; Return value:  Size  Location     Type
  7191 ;;                  3    0[BANK0 ] float 
  7192 ;; Registers used:
  7193 ;;		wreg, status,2, status,0, pclath, cstack
  7194 ;; Tracked objects:
  7195 ;;		On entry : 0/0
  7196 ;;		On exit  : 0/0
  7197 ;;		Unchanged: 0/0
  7198 ;; Data sizes:     COMMON   BANK0   BANK1   BANK3   BANK2
  7199 ;;      Params:         0       3       0       0       0
  7200 ;;      Locals:         1       0       0       0       0
  7201 ;;      Temps:          0       2       0       0       0
  7202 ;;      Totals:         1       5       0       0       0
  7203 ;;Total ram usage:        6 bytes
  7204 ;; Hardware stack levels used:    1
  7205 ;; Hardware stack levels required when called:    2
  7206 ;; This function calls:
  7207 ;;		___ftpack
  7208 ;; This function is called by:
  7209 ;;		_LeerADC
  7210 ;; This function uses a non-reentrant model
  7211 ;;
  7212                           
  7213                           
  7214                           ;psect for function ___awtoft
  7215  1E7B                     ___awtoft:
  7216  1E7B                     l3619:	
  7217                           ;incstack = 0
  7218                           ; Regs used in ___awtoft: [wreg+status,2+status,0+pclath+cstack]
  7219                           
  7220  1E7B  01FA               	clrf	___awtoft@sign
  7221  1E7C                     l3621:
  7222  1E7C  1283               	bcf	3,5	;RP0=0, select bank0
  7223  1E7D  1303               	bcf	3,6	;RP1=0, select bank0
  7224  1E7E  1FA1               	btfss	___awtoft@c+1,7
  7225  1E7F  2E81               	goto	u5171
  7226  1E80  2E82               	goto	u5170
  7227  1E81                     u5171:
  7228  1E81  2E89               	goto	l3627
  7229  1E82                     u5170:
  7230  1E82                     l3623:
  7231  1E82  09A0               	comf	___awtoft@c,f
  7232  1E83  09A1               	comf	___awtoft@c+1,f
  7233  1E84  0AA0               	incf	___awtoft@c,f
  7234  1E85  1903               	skipnz
  7235  1E86  0AA1               	incf	___awtoft@c+1,f
  7236  1E87                     l3625:
  7237  1E87  01FA               	clrf	___awtoft@sign
  7238  1E88  0AFA               	incf	___awtoft@sign,f
  7239  1E89                     l3627:
  7240  1E89  0820               	movf	___awtoft@c,w
  7241  1E8A  00F2               	movwf	___ftpack@arg
  7242  1E8B  0821               	movf	___awtoft@c+1,w
  7243  1E8C  00F3               	movwf	___ftpack@arg+1
  7244  1E8D  01F4               	clrf	___ftpack@arg+2
  7245  1E8E  308E               	movlw	142
  7246  1E8F  00A3               	movwf	??___awtoft
  7247  1E90  0823               	movf	??___awtoft,w
  7248  1E91  00F5               	movwf	___ftpack@exp
  7249  1E92  087A               	movf	___awtoft@sign,w
  7250  1E93  00A4               	movwf	??___awtoft+1
  7251  1E94  0824               	movf	??___awtoft+1,w
  7252  1E95  00F6               	movwf	___ftpack@sign
  7253  1E96  160A  118A  22F4  160A  158A  	fcall	___ftpack
  7254  1E9B  0872               	movf	?___ftpack,w
  7255  1E9C  1283               	bcf	3,5	;RP0=0, select bank0
  7256  1E9D  1303               	bcf	3,6	;RP1=0, select bank0
  7257  1E9E  00A0               	movwf	?___awtoft
  7258  1E9F  0873               	movf	?___ftpack+1,w
  7259  1EA0  00A1               	movwf	?___awtoft+1
  7260  1EA1  0874               	movf	?___ftpack+2,w
  7261  1EA2  00A2               	movwf	?___awtoft+2
  7262  1EA3                     l627:
  7263  1EA3  0008               	return
  7264  1EA4                     __end_of___awtoft:
  7265                           
  7266                           	psect	text29
  7267  12F4                     __ptext29:	
  7268 ;; *************** function ___ftpack *****************
  7269 ;; Defined at:
  7270 ;;		line 62 in file "D:\Microchip\xc8\v2.31\pic\sources\c90\common\float.c"
  7271 ;; Parameters:    Size  Location     Type
  7272 ;;  arg             3    2[COMMON] unsigned um
  7273 ;;  exp             1    5[COMMON] unsigned char 
  7274 ;;  sign            1    6[COMMON] unsigned char 
  7275 ;; Auto vars:     Size  Location     Type
  7276 ;;		None
  7277 ;; Return value:  Size  Location     Type
  7278 ;;                  3    2[COMMON] float 
  7279 ;; Registers used:
  7280 ;;		wreg, status,2, status,0
  7281 ;; Tracked objects:
  7282 ;;		On entry : 0/0
  7283 ;;		On exit  : 0/0
  7284 ;;		Unchanged: 0/0
  7285 ;; Data sizes:     COMMON   BANK0   BANK1   BANK3   BANK2
  7286 ;;      Params:         5       0       0       0       0
  7287 ;;      Locals:         0       0       0       0       0
  7288 ;;      Temps:          3       0       0       0       0
  7289 ;;      Totals:         8       0       0       0       0
  7290 ;;Total ram usage:        8 bytes
  7291 ;; Hardware stack levels used:    1
  7292 ;; Hardware stack levels required when called:    1
  7293 ;; This function calls:
  7294 ;;		Nothing
  7295 ;; This function is called by:
  7296 ;;		___awtoft
  7297 ;;		___ftadd
  7298 ;;		___ftmul
  7299 ;;		___lltoft
  7300 ;; This function uses a non-reentrant model
  7301 ;;
  7302                           
  7303                           
  7304                           ;psect for function ___ftpack
  7305  12F4                     ___ftpack:
  7306  12F4                     l3287:	
  7307                           ;incstack = 0
  7308                           ; Regs used in ___ftpack: [wreg+status,2+status,0]
  7309                           
  7310  12F4  0875               	movf	___ftpack@exp,w
  7311  12F5  1903               	btfsc	3,2
  7312  12F6  2AF8               	goto	u4381
  7313  12F7  2AF9               	goto	u4380
  7314  12F8                     u4381:
  7315  12F8  2B00               	goto	l3291
  7316  12F9                     u4380:
  7317  12F9                     l3289:
  7318  12F9  0874               	movf	___ftpack@arg+2,w
  7319  12FA  0473               	iorwf	___ftpack@arg+1,w
  7320  12FB  0472               	iorwf	___ftpack@arg,w
  7321  12FC  1D03               	skipz
  7322  12FD  2AFF               	goto	u4391
  7323  12FE  2B00               	goto	u4390
  7324  12FF                     u4391:
  7325  12FF  2B13               	goto	l3297
  7326  1300                     u4390:
  7327  1300                     l3291:
  7328  1300  3000               	movlw	0
  7329  1301  00F2               	movwf	?___ftpack
  7330  1302  3000               	movlw	0
  7331  1303  00F3               	movwf	?___ftpack+1
  7332  1304  3000               	movlw	0
  7333  1305  00F4               	movwf	?___ftpack+2
  7334  1306  2B6F               	goto	l650
  7335  1307                     l3295:
  7336  1307  3001               	movlw	1
  7337  1308  00F7               	movwf	??___ftpack
  7338  1309  0877               	movf	??___ftpack,w
  7339  130A  07F5               	addwf	___ftpack@exp,f
  7340  130B  3001               	movlw	1
  7341  130C                     u4405:
  7342  130C  1003               	clrc
  7343  130D  0CF4               	rrf	___ftpack@arg+2,f
  7344  130E  0CF3               	rrf	___ftpack@arg+1,f
  7345  130F  0CF2               	rrf	___ftpack@arg,f
  7346  1310  3EFF               	addlw	-1
  7347  1311  1D03               	skipz
  7348  1312  2B0C               	goto	u4405
  7349  1313                     l3297:
  7350  1313  30FE               	movlw	254
  7351  1314  0574               	andwf	___ftpack@arg+2,w
  7352  1315  1D03               	btfss	3,2
  7353  1316  2B18               	goto	u4411
  7354  1317  2B19               	goto	u4410
  7355  1318                     u4411:
  7356  1318  2B07               	goto	l3295
  7357  1319                     u4410:
  7358  1319  2B30               	goto	l654
  7359  131A                     l3299:
  7360  131A  3001               	movlw	1
  7361  131B  00F7               	movwf	??___ftpack
  7362  131C  0877               	movf	??___ftpack,w
  7363  131D  07F5               	addwf	___ftpack@exp,f
  7364  131E                     l3301:
  7365  131E  3001               	movlw	1
  7366  131F  07F2               	addwf	___ftpack@arg,f
  7367  1320  3000               	movlw	0
  7368  1321  1803               	skipnc
  7369  1322  3001               	movlw	1
  7370  1323  07F3               	addwf	___ftpack@arg+1,f
  7371  1324  3000               	movlw	0
  7372  1325  1803               	skipnc
  7373  1326  3001               	movlw	1
  7374  1327  07F4               	addwf	___ftpack@arg+2,f
  7375  1328                     l3303:
  7376  1328  3001               	movlw	1
  7377  1329                     u4425:
  7378  1329  1003               	clrc
  7379  132A  0CF4               	rrf	___ftpack@arg+2,f
  7380  132B  0CF3               	rrf	___ftpack@arg+1,f
  7381  132C  0CF2               	rrf	___ftpack@arg,f
  7382  132D  3EFF               	addlw	-1
  7383  132E  1D03               	skipz
  7384  132F  2B29               	goto	u4425
  7385  1330                     l654:
  7386  1330  30FF               	movlw	255
  7387  1331  0574               	andwf	___ftpack@arg+2,w
  7388  1332  1D03               	btfss	3,2
  7389  1333  2B35               	goto	u4431
  7390  1334  2B36               	goto	u4430
  7391  1335                     u4431:
  7392  1335  2B1A               	goto	l3299
  7393  1336                     u4430:
  7394  1336  2B41               	goto	l3307
  7395  1337                     l3305:
  7396  1337  3001               	movlw	1
  7397  1338  02F5               	subwf	___ftpack@exp,f
  7398  1339  3001               	movlw	1
  7399  133A                     u4445:
  7400  133A  1003               	clrc
  7401  133B  0DF2               	rlf	___ftpack@arg,f
  7402  133C  0DF3               	rlf	___ftpack@arg+1,f
  7403  133D  0DF4               	rlf	___ftpack@arg+2,f
  7404  133E  3EFF               	addlw	-1
  7405  133F  1D03               	skipz
  7406  1340  2B3A               	goto	u4445
  7407  1341                     l3307:
  7408  1341  1BF3               	btfsc	___ftpack@arg+1,7
  7409  1342  2B44               	goto	u4451
  7410  1343  2B45               	goto	u4450
  7411  1344                     u4451:
  7412  1344  2B4B               	goto	l661
  7413  1345                     u4450:
  7414  1345                     l3309:
  7415  1345  3002               	movlw	2
  7416  1346  0275               	subwf	___ftpack@exp,w
  7417  1347  1803               	skipnc
  7418  1348  2B4A               	goto	u4461
  7419  1349  2B4B               	goto	u4460
  7420  134A                     u4461:
  7421  134A  2B37               	goto	l3305
  7422  134B                     u4460:
  7423  134B                     l661:
  7424  134B  1875               	btfsc	___ftpack@exp,0
  7425  134C  2B4E               	goto	u4471
  7426  134D  2B4F               	goto	u4470
  7427  134E                     u4471:
  7428  134E  2B55               	goto	l662
  7429  134F                     u4470:
  7430  134F                     l3311:
  7431  134F  30FF               	movlw	255
  7432  1350  05F2               	andwf	___ftpack@arg,f
  7433  1351  307F               	movlw	127
  7434  1352  05F3               	andwf	___ftpack@arg+1,f
  7435  1353  30FF               	movlw	255
  7436  1354  05F4               	andwf	___ftpack@arg+2,f
  7437  1355                     l662:
  7438  1355  1003               	clrc
  7439  1356  0CF5               	rrf	___ftpack@exp,f
  7440  1357                     l3313:
  7441  1357  0875               	movf	___ftpack@exp,w
  7442  1358  00F7               	movwf	??___ftpack
  7443  1359  01F8               	clrf	??___ftpack+1
  7444  135A  01F9               	clrf	??___ftpack+2
  7445  135B  3010               	movlw	16
  7446  135C                     u4485:
  7447  135C  1003               	clrc
  7448  135D  0DF7               	rlf	??___ftpack,f
  7449  135E  0DF8               	rlf	??___ftpack+1,f
  7450  135F  0DF9               	rlf	??___ftpack+2,f
  7451  1360                     u4480:
  7452  1360  3EFF               	addlw	-1
  7453  1361  1D03               	skipz
  7454  1362  2B5C               	goto	u4485
  7455  1363  0877               	movf	??___ftpack,w
  7456  1364  04F2               	iorwf	___ftpack@arg,f
  7457  1365  0878               	movf	??___ftpack+1,w
  7458  1366  04F3               	iorwf	___ftpack@arg+1,f
  7459  1367  0879               	movf	??___ftpack+2,w
  7460  1368  04F4               	iorwf	___ftpack@arg+2,f
  7461  1369                     l3315:
  7462  1369  0876               	movf	___ftpack@sign,w
  7463  136A  1903               	btfsc	3,2
  7464  136B  2B6D               	goto	u4491
  7465  136C  2B6E               	goto	u4490
  7466  136D                     u4491:
  7467  136D  2B6F               	goto	l663
  7468  136E                     u4490:
  7469  136E                     l3317:
  7470  136E  17F4               	bsf	___ftpack@arg+2,7
  7471  136F                     l663:
  7472  136F                     l650:
  7473  136F  0008               	return
  7474  1370                     __end_of___ftpack:
  7475                           
  7476                           	psect	text30
  7477  0818                     __ptext30:	
  7478 ;; *************** function _ADC_Select *****************
  7479 ;; Defined at:
  7480 ;;		line 21 in file "ADC.c"
  7481 ;; Parameters:    Size  Location     Type
  7482 ;;  a               1    wreg     unsigned char 
  7483 ;; Auto vars:     Size  Location     Type
  7484 ;;  a               1    4[COMMON] unsigned char 
  7485 ;; Return value:  Size  Location     Type
  7486 ;;                  1    wreg      void 
  7487 ;; Registers used:
  7488 ;;		wreg, fsr0l, fsr0h, status,2, status,0
  7489 ;; Tracked objects:
  7490 ;;		On entry : 0/0
  7491 ;;		On exit  : 0/0
  7492 ;;		Unchanged: 0/0
  7493 ;; Data sizes:     COMMON   BANK0   BANK1   BANK3   BANK2
  7494 ;;      Params:         0       0       0       0       0
  7495 ;;      Locals:         1       0       0       0       0
  7496 ;;      Temps:          2       0       0       0       0
  7497 ;;      Totals:         3       0       0       0       0
  7498 ;;Total ram usage:        3 bytes
  7499 ;; Hardware stack levels used:    1
  7500 ;; Hardware stack levels required when called:    1
  7501 ;; This function calls:
  7502 ;;		Nothing
  7503 ;; This function is called by:
  7504 ;;		_LeerADC
  7505 ;; This function uses a non-reentrant model
  7506 ;;
  7507                           
  7508                           
  7509                           ;psect for function _ADC_Select
  7510  0818                     _ADC_Select:
  7511                           
  7512                           ;incstack = 0
  7513                           ; Regs used in _ADC_Select: [wreg-fsr0h+status,2+status,0]
  7514                           ;ADC_Select@a stored from wreg
  7515  0818  00F4               	movwf	ADC_Select@a
  7516  0819                     l2413:
  7517                           
  7518                           ;ADC.c: 22:     switch(a){
  7519  0819  287F               	goto	l2447
  7520  081A                     l2415:
  7521  081A  30C3               	movlw	-61
  7522  081B  1283               	bcf	3,5	;RP0=0, select bank0
  7523  081C  1303               	bcf	3,6	;RP1=0, select bank0
  7524  081D  059F               	andwf	31,f	;volatile
  7525  081E  28B3               	goto	l171
  7526  081F                     l2417:
  7527  081F  1283               	bcf	3,5	;RP0=0, select bank0
  7528  0820  1303               	bcf	3,6	;RP1=0, select bank0
  7529  0821  081F               	movf	31,w	;volatile
  7530  0822  39C3               	andlw	-61
  7531  0823  3804               	iorlw	4
  7532  0824  009F               	movwf	31	;volatile
  7533  0825  28B3               	goto	l171
  7534  0826                     l2419:
  7535  0826  1283               	bcf	3,5	;RP0=0, select bank0
  7536  0827  1303               	bcf	3,6	;RP1=0, select bank0
  7537  0828  081F               	movf	31,w	;volatile
  7538  0829  39C3               	andlw	-61
  7539  082A  3808               	iorlw	8
  7540  082B  009F               	movwf	31	;volatile
  7541  082C  28B3               	goto	l171
  7542  082D                     l2421:
  7543  082D  1283               	bcf	3,5	;RP0=0, select bank0
  7544  082E  1303               	bcf	3,6	;RP1=0, select bank0
  7545  082F  081F               	movf	31,w	;volatile
  7546  0830  39C3               	andlw	-61
  7547  0831  380C               	iorlw	12
  7548  0832  009F               	movwf	31	;volatile
  7549  0833  28B3               	goto	l171
  7550  0834                     l2423:
  7551  0834  1283               	bcf	3,5	;RP0=0, select bank0
  7552  0835  1303               	bcf	3,6	;RP1=0, select bank0
  7553  0836  081F               	movf	31,w	;volatile
  7554  0837  39C3               	andlw	-61
  7555  0838  3810               	iorlw	16
  7556  0839  009F               	movwf	31	;volatile
  7557  083A  28B3               	goto	l171
  7558  083B                     l2425:
  7559  083B  1283               	bcf	3,5	;RP0=0, select bank0
  7560  083C  1303               	bcf	3,6	;RP1=0, select bank0
  7561  083D  081F               	movf	31,w	;volatile
  7562  083E  39C3               	andlw	-61
  7563  083F  3814               	iorlw	20
  7564  0840  009F               	movwf	31	;volatile
  7565  0841  28B3               	goto	l171
  7566  0842                     l2427:
  7567  0842  1283               	bcf	3,5	;RP0=0, select bank0
  7568  0843  1303               	bcf	3,6	;RP1=0, select bank0
  7569  0844  081F               	movf	31,w	;volatile
  7570  0845  39C3               	andlw	-61
  7571  0846  3818               	iorlw	24
  7572  0847  009F               	movwf	31	;volatile
  7573  0848  28B3               	goto	l171
  7574  0849                     l2429:
  7575  0849  1283               	bcf	3,5	;RP0=0, select bank0
  7576  084A  1303               	bcf	3,6	;RP1=0, select bank0
  7577  084B  081F               	movf	31,w	;volatile
  7578  084C  39C3               	andlw	-61
  7579  084D  381C               	iorlw	28
  7580  084E  009F               	movwf	31	;volatile
  7581  084F  28B3               	goto	l171
  7582  0850                     l2431:
  7583  0850  1283               	bcf	3,5	;RP0=0, select bank0
  7584  0851  1303               	bcf	3,6	;RP1=0, select bank0
  7585  0852  081F               	movf	31,w	;volatile
  7586  0853  39C3               	andlw	-61
  7587  0854  3820               	iorlw	32
  7588  0855  009F               	movwf	31	;volatile
  7589  0856  28B3               	goto	l171
  7590  0857                     l2433:
  7591  0857  1283               	bcf	3,5	;RP0=0, select bank0
  7592  0858  1303               	bcf	3,6	;RP1=0, select bank0
  7593  0859  081F               	movf	31,w	;volatile
  7594  085A  39C3               	andlw	-61
  7595  085B  3824               	iorlw	36
  7596  085C  009F               	movwf	31	;volatile
  7597  085D  28B3               	goto	l171
  7598  085E                     l2435:
  7599  085E  1283               	bcf	3,5	;RP0=0, select bank0
  7600  085F  1303               	bcf	3,6	;RP1=0, select bank0
  7601  0860  081F               	movf	31,w	;volatile
  7602  0861  39C3               	andlw	-61
  7603  0862  3828               	iorlw	40
  7604  0863  009F               	movwf	31	;volatile
  7605  0864  28B3               	goto	l171
  7606  0865                     l2437:
  7607  0865  1283               	bcf	3,5	;RP0=0, select bank0
  7608  0866  1303               	bcf	3,6	;RP1=0, select bank0
  7609  0867  081F               	movf	31,w	;volatile
  7610  0868  39C3               	andlw	-61
  7611  0869  382C               	iorlw	44
  7612  086A  009F               	movwf	31	;volatile
  7613  086B  28B3               	goto	l171
  7614  086C                     l2439:
  7615  086C  1283               	bcf	3,5	;RP0=0, select bank0
  7616  086D  1303               	bcf	3,6	;RP1=0, select bank0
  7617  086E  081F               	movf	31,w	;volatile
  7618  086F  39C3               	andlw	-61
  7619  0870  3830               	iorlw	48
  7620  0871  009F               	movwf	31	;volatile
  7621  0872  28B3               	goto	l171
  7622  0873                     l2441:
  7623  0873  1283               	bcf	3,5	;RP0=0, select bank0
  7624  0874  1303               	bcf	3,6	;RP1=0, select bank0
  7625  0875  081F               	movf	31,w	;volatile
  7626  0876  39C3               	andlw	-61
  7627  0877  3834               	iorlw	52
  7628  0878  009F               	movwf	31	;volatile
  7629  0879  28B3               	goto	l171
  7630  087A                     l2443:
  7631  087A  30C3               	movlw	-61
  7632  087B  1283               	bcf	3,5	;RP0=0, select bank0
  7633  087C  1303               	bcf	3,6	;RP1=0, select bank0
  7634  087D  059F               	andwf	31,f	;volatile
  7635  087E  28B3               	goto	l171
  7636  087F                     l2447:
  7637  087F  0874               	movf	ADC_Select@a,w
  7638  0880  00F2               	movwf	??_ADC_Select
  7639  0881  01F3               	clrf	??_ADC_Select+1
  7640                           
  7641                           ; Switch on 2 bytes has been partitioned into a top level switch of size 1, and 1 sub-sw
      +                          itches
  7642                           ; Switch size 1, requested type "simple"
  7643                           ; Number of cases is 1, Range of values is 0 to 0
  7644                           ; switch strategies available:
  7645                           ; Name         Instructions Cycles
  7646                           ; simple_byte            4     3 (average)
  7647                           ; direct_byte           11     8 (fixed)
  7648                           ; jumptable            260     6 (fixed)
  7649                           ;	Chosen strategy is simple_byte
  7650  0882  0873               	movf	??_ADC_Select+1,w
  7651  0883  3A00               	xorlw	0	; case 0
  7652  0884  1903               	skipnz
  7653  0885  2887               	goto	l4107
  7654  0886  287A               	goto	l2443
  7655  0887                     l4107:
  7656                           
  7657                           ; Switch size 1, requested type "simple"
  7658                           ; Number of cases is 14, Range of values is 0 to 13
  7659                           ; switch strategies available:
  7660                           ; Name         Instructions Cycles
  7661                           ; simple_byte           43    22 (average)
  7662                           ; direct_byte           50     8 (fixed)
  7663                           ; jumptable            260     6 (fixed)
  7664                           ;	Chosen strategy is simple_byte
  7665  0887  0872               	movf	??_ADC_Select,w
  7666  0888  3A00               	xorlw	0	; case 0
  7667  0889  1903               	skipnz
  7668  088A  281A               	goto	l2415
  7669  088B  3A01               	xorlw	1	; case 1
  7670  088C  1903               	skipnz
  7671  088D  281F               	goto	l2417
  7672  088E  3A03               	xorlw	3	; case 2
  7673  088F  1903               	skipnz
  7674  0890  2826               	goto	l2419
  7675  0891  3A01               	xorlw	1	; case 3
  7676  0892  1903               	skipnz
  7677  0893  282D               	goto	l2421
  7678  0894  3A07               	xorlw	7	; case 4
  7679  0895  1903               	skipnz
  7680  0896  2834               	goto	l2423
  7681  0897  3A01               	xorlw	1	; case 5
  7682  0898  1903               	skipnz
  7683  0899  283B               	goto	l2425
  7684  089A  3A03               	xorlw	3	; case 6
  7685  089B  1903               	skipnz
  7686  089C  2842               	goto	l2427
  7687  089D  3A01               	xorlw	1	; case 7
  7688  089E  1903               	skipnz
  7689  089F  2849               	goto	l2429
  7690  08A0  3A0F               	xorlw	15	; case 8
  7691  08A1  1903               	skipnz
  7692  08A2  2850               	goto	l2431
  7693  08A3  3A01               	xorlw	1	; case 9
  7694  08A4  1903               	skipnz
  7695  08A5  2857               	goto	l2433
  7696  08A6  3A03               	xorlw	3	; case 10
  7697  08A7  1903               	skipnz
  7698  08A8  285E               	goto	l2435
  7699  08A9  3A01               	xorlw	1	; case 11
  7700  08AA  1903               	skipnz
  7701  08AB  2865               	goto	l2437
  7702  08AC  3A07               	xorlw	7	; case 12
  7703  08AD  1903               	skipnz
  7704  08AE  286C               	goto	l2439
  7705  08AF  3A01               	xorlw	1	; case 13
  7706  08B0  1903               	skipnz
  7707  08B1  2873               	goto	l2441
  7708  08B2  287A               	goto	l2443
  7709  08B3                     l171:
  7710  08B3  0008               	return
  7711  08B4                     __end_of_ADC_Select:
  7712                           
  7713                           	psect	text31
  7714  1D9A                     __ptext31:	
  7715 ;; *************** function _LCD_clear *****************
  7716 ;; Defined at:
  7717 ;;		line 41 in file "LCD.c"
  7718 ;; Parameters:    Size  Location     Type
  7719 ;;		None
  7720 ;; Auto vars:     Size  Location     Type
  7721 ;;		None
  7722 ;; Return value:  Size  Location     Type
  7723 ;;                  1    wreg      void 
  7724 ;; Registers used:
  7725 ;;		wreg, status,2, status,0, pclath, cstack
  7726 ;; Tracked objects:
  7727 ;;		On entry : 0/0
  7728 ;;		On exit  : 0/0
  7729 ;;		Unchanged: 0/0
  7730 ;; Data sizes:     COMMON   BANK0   BANK1   BANK3   BANK2
  7731 ;;      Params:         0       0       0       0       0
  7732 ;;      Locals:         0       0       0       0       0
  7733 ;;      Temps:          0       0       0       0       0
  7734 ;;      Totals:         0       0       0       0       0
  7735 ;;Total ram usage:        0 bytes
  7736 ;; Hardware stack levels used:    1
  7737 ;; Hardware stack levels required when called:    3
  7738 ;; This function calls:
  7739 ;;		_LCD_Command
  7740 ;; This function is called by:
  7741 ;;		_main
  7742 ;; This function uses a non-reentrant model
  7743 ;;
  7744                           
  7745                           
  7746                           ;psect for function _LCD_clear
  7747  1D9A                     _LCD_clear:
  7748  1D9A                     l3681:	
  7749                           ;incstack = 0
  7750                           ; Regs used in _LCD_clear: [wreg+status,2+status,0+pclath+cstack]
  7751                           
  7752                           
  7753                           ;LCD.c: 42:     LCD_Command(0);
  7754  1D9A  3000               	movlw	0
  7755  1D9B  160A  158A  25C6  160A  158A  	fcall	_LCD_Command
  7756                           
  7757                           ;LCD.c: 43:     LCD_Command(1);
  7758  1DA0  3001               	movlw	1
  7759  1DA1  160A  158A  25C6  160A  158A  	fcall	_LCD_Command
  7760  1DA6                     l121:
  7761  1DA6  0008               	return
  7762  1DA7                     __end_of_LCD_clear:
  7763                           
  7764                           	psect	text32
  7765  1F74                     __ptext32:	
  7766 ;; *************** function _LCD_Write_String *****************
  7767 ;; Defined at:
  7768 ;;		line 77 in file "LCD.c"
  7769 ;; Parameters:    Size  Location     Type
  7770 ;;  a               2    5[COMMON] PTR unsigned char 
  7771 ;;		 -> STR_3(16), pantalla(20), 
  7772 ;; Auto vars:     Size  Location     Type
  7773 ;;  i               2    0[BANK0 ] int 
  7774 ;; Return value:  Size  Location     Type
  7775 ;;                  1    wreg      void 
  7776 ;; Registers used:
  7777 ;;		wreg, fsr0l, fsr0h, status,2, status,0, btemp+1, pclath, cstack
  7778 ;; Tracked objects:
  7779 ;;		On entry : 0/0
  7780 ;;		On exit  : 0/0
  7781 ;;		Unchanged: 0/0
  7782 ;; Data sizes:     COMMON   BANK0   BANK1   BANK3   BANK2
  7783 ;;      Params:         2       0       0       0       0
  7784 ;;      Locals:         0       2       0       0       0
  7785 ;;      Temps:          3       0       0       0       0
  7786 ;;      Totals:         5       2       0       0       0
  7787 ;;Total ram usage:        7 bytes
  7788 ;; Hardware stack levels used:    1
  7789 ;; Hardware stack levels required when called:    3
  7790 ;; This function calls:
  7791 ;;		_LCD_Write_Char
  7792 ;; This function is called by:
  7793 ;;		_main
  7794 ;; This function uses a non-reentrant model
  7795 ;;
  7796                           
  7797                           
  7798                           ;psect for function _LCD_Write_String
  7799  1F74                     _LCD_Write_String:
  7800  1F74                     l4003:	
  7801                           ;incstack = 0
  7802                           ; Regs used in _LCD_Write_String: [wreg-fsr0h+status,2+status,0+btemp+1+pclath+cstack]
  7803                           
  7804                           
  7805                           ;LCD.c: 78:  int i;;LCD.c: 79:  for(i=0;a[i]!='\0';i++)
  7806  1F74  1283               	bcf	3,5	;RP0=0, select bank0
  7807  1F75  1303               	bcf	3,6	;RP1=0, select bank0
  7808  1F76  01A0               	clrf	LCD_Write_String@i
  7809  1F77  01A1               	clrf	LCD_Write_String@i+1
  7810  1F78  2F9D               	goto	l4009
  7811  1F79                     l4005:
  7812                           
  7813                           ;LCD.c: 80:     LCD_Write_Char(a[i]);
  7814  1F79  0820               	movf	LCD_Write_String@i,w
  7815  1F7A  0775               	addwf	LCD_Write_String@a,w
  7816  1F7B  00F8               	movwf	??_LCD_Write_String+1
  7817  1F7C  0876               	movf	LCD_Write_String@a+1,w
  7818  1F7D  00F7               	movwf	??_LCD_Write_String
  7819  1F7E  1803               	skipnc
  7820  1F7F  0AF7               	incf	??_LCD_Write_String,f
  7821  1F80  1FA0               	btfss	LCD_Write_String@i,7
  7822  1F81  2F83               	goto	u5840
  7823  1F82  03F7               	decf	??_LCD_Write_String,f
  7824  1F83                     u5840:
  7825  1F83  0877               	movf	??_LCD_Write_String,w
  7826  1F84  00F9               	movwf	??_LCD_Write_String+2
  7827  1F85  0879               	movf	??_LCD_Write_String+2,w
  7828  1F86  1283               	bcf	3,5	;RP0=0, select bank0
  7829  1F87  1303               	bcf	3,6	;RP1=0, select bank0
  7830  1F88  00FF               	movwf	btemp+1
  7831  1F89  0878               	movf	??_LCD_Write_String+1,w
  7832  1F8A  0084               	movwf	4
  7833  1F8B  160A  118A  2000  160A  158A  	fcall	stringtab
  7834  1F90  160A  118A  20C4  160A  158A  	fcall	_LCD_Write_Char
  7835  1F95                     l4007:
  7836  1F95  3001               	movlw	1
  7837  1F96  1283               	bcf	3,5	;RP0=0, select bank0
  7838  1F97  1303               	bcf	3,6	;RP1=0, select bank0
  7839  1F98  07A0               	addwf	LCD_Write_String@i,f
  7840  1F99  1803               	skipnc
  7841  1F9A  0AA1               	incf	LCD_Write_String@i+1,f
  7842  1F9B  3000               	movlw	0
  7843  1F9C  07A1               	addwf	LCD_Write_String@i+1,f
  7844  1F9D                     l4009:
  7845  1F9D  0820               	movf	LCD_Write_String@i,w
  7846  1F9E  0775               	addwf	LCD_Write_String@a,w
  7847  1F9F  00F8               	movwf	??_LCD_Write_String+1
  7848  1FA0  0876               	movf	LCD_Write_String@a+1,w
  7849  1FA1  00F7               	movwf	??_LCD_Write_String
  7850  1FA2  1803               	skipnc
  7851  1FA3  0AF7               	incf	??_LCD_Write_String,f
  7852  1FA4  1FA0               	btfss	LCD_Write_String@i,7
  7853  1FA5  2FA7               	goto	u5850
  7854  1FA6  03F7               	decf	??_LCD_Write_String,f
  7855  1FA7                     u5850:
  7856  1FA7  0877               	movf	??_LCD_Write_String,w
  7857  1FA8  00F9               	movwf	??_LCD_Write_String+2
  7858  1FA9  0879               	movf	??_LCD_Write_String+2,w
  7859  1FAA  1283               	bcf	3,5	;RP0=0, select bank0
  7860  1FAB  1303               	bcf	3,6	;RP1=0, select bank0
  7861  1FAC  00FF               	movwf	btemp+1
  7862  1FAD  0878               	movf	??_LCD_Write_String+1,w
  7863  1FAE  0084               	movwf	4
  7864  1FAF  160A  118A  2000  160A  158A  	fcall	stringtab
  7865  1FB4  3A00               	xorlw	0
  7866  1FB5  1D03               	skipz
  7867  1FB6  2FB8               	goto	u5861
  7868  1FB7  2FB9               	goto	u5860
  7869  1FB8                     u5861:
  7870  1FB8  2F79               	goto	l4005
  7871  1FB9                     u5860:
  7872  1FB9                     l136:
  7873  1FB9  0008               	return
  7874  1FBA                     __end_of_LCD_Write_String:
  7875                           
  7876                           	psect	text33
  7877  10C4                     __ptext33:	
  7878 ;; *************** function _LCD_Write_Char *****************
  7879 ;; Defined at:
  7880 ;;		line 9 in file "LCD.c"
  7881 ;; Parameters:    Size  Location     Type
  7882 ;;  a               1    wreg     unsigned char 
  7883 ;; Auto vars:     Size  Location     Type
  7884 ;;  a               1    4[COMMON] unsigned char 
  7885 ;; Return value:  Size  Location     Type
  7886 ;;                  1    wreg      void 
  7887 ;; Registers used:
  7888 ;;		wreg, status,2, status,0, pclath, cstack
  7889 ;; Tracked objects:
  7890 ;;		On entry : 0/0
  7891 ;;		On exit  : 0/0
  7892 ;;		Unchanged: 0/0
  7893 ;; Data sizes:     COMMON   BANK0   BANK1   BANK3   BANK2
  7894 ;;      Params:         0       0       0       0       0
  7895 ;;      Locals:         1       0       0       0       0
  7896 ;;      Temps:          1       0       0       0       0
  7897 ;;      Totals:         2       0       0       0       0
  7898 ;;Total ram usage:        2 bytes
  7899 ;; Hardware stack levels used:    1
  7900 ;; Hardware stack levels required when called:    2
  7901 ;; This function calls:
  7902 ;;		_LCD_Port
  7903 ;; This function is called by:
  7904 ;;		_LCD_Write_String
  7905 ;; This function uses a non-reentrant model
  7906 ;;
  7907                           
  7908                           
  7909                           ;psect for function _LCD_Write_Char
  7910  10C4                     _LCD_Write_Char:
  7911                           
  7912                           ;incstack = 0
  7913                           ; Regs used in _LCD_Write_Char: [wreg+status,2+status,0+pclath+cstack]
  7914                           ;LCD_Write_Char@a stored from wreg
  7915  10C4  00F4               	movwf	LCD_Write_Char@a
  7916  10C5                     l3481:
  7917                           
  7918                           ;LCD.c: 10:     RE0 = 1;
  7919  10C5  1283               	bcf	3,5	;RP0=0, select bank0
  7920  10C6  1303               	bcf	3,6	;RP1=0, select bank0
  7921  10C7  1409               	bsf	9,0	;volatile
  7922  10C8                     l3483:
  7923                           
  7924                           ;LCD.c: 11:     LCD_Port(a);
  7925  10C8  0874               	movf	LCD_Write_Char@a,w
  7926  10C9  160A  158A  256F  160A  118A  	fcall	_LCD_Port
  7927  10CE                     l3485:
  7928                           
  7929                           ;LCD.c: 12:     RE1 = 1;
  7930  10CE  1283               	bcf	3,5	;RP0=0, select bank0
  7931  10CF  1303               	bcf	3,6	;RP1=0, select bank0
  7932  10D0  1489               	bsf	9,1	;volatile
  7933  10D1                     l3487:
  7934                           
  7935                           ;LCD.c: 13:     _delay((unsigned long)((40)*(4000000/4000000.0)));
  7936  10D1  300D               	movlw	13
  7937  10D2  00F3               	movwf	??_LCD_Write_Char
  7938  10D3                     u5927:
  7939  10D3  0BF3               	decfsz	??_LCD_Write_Char,f
  7940  10D4  28D3               	goto	u5927
  7941  10D5                     l3489:
  7942                           
  7943                           ;LCD.c: 14:     RE1 = 0;
  7944  10D5  1283               	bcf	3,5	;RP0=0, select bank0
  7945  10D6  1303               	bcf	3,6	;RP1=0, select bank0
  7946  10D7  1089               	bcf	9,1	;volatile
  7947  10D8                     l3491:
  7948                           
  7949                           ;LCD.c: 15:     _delay((unsigned long)((10)*(4000000/4000000.0)));
  7950  10D8  3003               	movlw	3
  7951  10D9  00F3               	movwf	??_LCD_Write_Char
  7952  10DA                     u5937:
  7953  10DA  0BF3               	decfsz	??_LCD_Write_Char,f
  7954  10DB  28DA               	goto	u5937
  7955  10DC                     l112:
  7956  10DC  0008               	return
  7957  10DD                     __end_of_LCD_Write_Char:
  7958                           
  7959                           	psect	text34
  7960  1DE9                     __ptext34:	
  7961 ;; *************** function _LCD_Set_Cursor *****************
  7962 ;; Defined at:
  7963 ;;		line 63 in file "LCD.c"
  7964 ;; Parameters:    Size  Location     Type
  7965 ;;  x               1    wreg     unsigned char 
  7966 ;;  y               1    6[COMMON] unsigned char 
  7967 ;; Auto vars:     Size  Location     Type
  7968 ;;  x               1    8[COMMON] unsigned char 
  7969 ;;  a               1    9[COMMON] unsigned char 
  7970 ;; Return value:  Size  Location     Type
  7971 ;;                  1    wreg      void 
  7972 ;; Registers used:
  7973 ;;		wreg, status,2, status,0, pclath, cstack
  7974 ;; Tracked objects:
  7975 ;;		On entry : 0/0
  7976 ;;		On exit  : 0/0
  7977 ;;		Unchanged: 0/0
  7978 ;; Data sizes:     COMMON   BANK0   BANK1   BANK3   BANK2
  7979 ;;      Params:         1       0       0       0       0
  7980 ;;      Locals:         2       0       0       0       0
  7981 ;;      Temps:          1       0       0       0       0
  7982 ;;      Totals:         4       0       0       0       0
  7983 ;;Total ram usage:        4 bytes
  7984 ;; Hardware stack levels used:    1
  7985 ;; Hardware stack levels required when called:    3
  7986 ;; This function calls:
  7987 ;;		_LCD_Command
  7988 ;; This function is called by:
  7989 ;;		_main
  7990 ;; This function uses a non-reentrant model
  7991 ;;
  7992                           
  7993                           
  7994                           ;psect for function _LCD_Set_Cursor
  7995  1DE9                     _LCD_Set_Cursor:
  7996                           
  7997                           ;incstack = 0
  7998                           ; Regs used in _LCD_Set_Cursor: [wreg+status,2+status,0+pclath+cstack]
  7999                           ;LCD_Set_Cursor@x stored from wreg
  8000  1DE9  00F8               	movwf	LCD_Set_Cursor@x
  8001  1DEA                     l3991:
  8002                           
  8003                           ;LCD.c: 64:  char a;;LCD.c: 65:  if(x == 1)
  8004  1DEA  0378               	decf	LCD_Set_Cursor@x,w
  8005  1DEB  1D03               	btfss	3,2
  8006  1DEC  2DEE               	goto	u5821
  8007  1DED  2DEF               	goto	u5820
  8008  1DEE                     u5821:
  8009  1DEE  2DFB               	goto	l3997
  8010  1DEF                     u5820:
  8011  1DEF                     l3993:
  8012                           
  8013                           ;LCD.c: 66:  {;LCD.c: 67:         a = 0x80 + y;
  8014  1DEF  0876               	movf	LCD_Set_Cursor@y,w
  8015  1DF0  3E80               	addlw	128
  8016  1DF1  00F7               	movwf	??_LCD_Set_Cursor
  8017  1DF2  0877               	movf	??_LCD_Set_Cursor,w
  8018  1DF3  00F9               	movwf	LCD_Set_Cursor@a
  8019  1DF4                     l3995:
  8020                           
  8021                           ;LCD.c: 68:   LCD_Command(a);
  8022  1DF4  0879               	movf	LCD_Set_Cursor@a,w
  8023  1DF5  160A  158A  25C6  160A  158A  	fcall	_LCD_Command
  8024                           
  8025                           ;LCD.c: 69:  }
  8026  1DFA  2E0C               	goto	l130
  8027  1DFB                     l3997:
  8028  1DFB  3002               	movlw	2
  8029  1DFC  0678               	xorwf	LCD_Set_Cursor@x,w
  8030  1DFD  1D03               	btfss	3,2
  8031  1DFE  2E00               	goto	u5831
  8032  1DFF  2E01               	goto	u5830
  8033  1E00                     u5831:
  8034  1E00  2E0C               	goto	l130
  8035  1E01                     u5830:
  8036  1E01                     l3999:
  8037                           
  8038                           ;LCD.c: 71:  {;LCD.c: 72:   a = 0xC0 + y;
  8039  1E01  0876               	movf	LCD_Set_Cursor@y,w
  8040  1E02  3EC0               	addlw	192
  8041  1E03  00F7               	movwf	??_LCD_Set_Cursor
  8042  1E04  0877               	movf	??_LCD_Set_Cursor,w
  8043  1E05  00F9               	movwf	LCD_Set_Cursor@a
  8044  1E06                     l4001:
  8045                           
  8046                           ;LCD.c: 73:   LCD_Command(a);
  8047  1E06  0879               	movf	LCD_Set_Cursor@a,w
  8048  1E07  160A  158A  25C6  160A  158A  	fcall	_LCD_Command
  8049  1E0C                     l130:
  8050  1E0C  0008               	return
  8051  1E0D                     __end_of_LCD_Set_Cursor:
  8052                           
  8053                           	psect	text35
  8054  1125                     __ptext35:	
  8055 ;; *************** function _LCD_Init *****************
  8056 ;; Defined at:
  8057 ;;		line 46 in file "LCD.c"
  8058 ;; Parameters:    Size  Location     Type
  8059 ;;		None
  8060 ;; Auto vars:     Size  Location     Type
  8061 ;;		None
  8062 ;; Return value:  Size  Location     Type
  8063 ;;                  1    wreg      void 
  8064 ;; Registers used:
  8065 ;;		wreg, status,2, status,0, pclath, cstack
  8066 ;; Tracked objects:
  8067 ;;		On entry : 0/0
  8068 ;;		On exit  : 0/0
  8069 ;;		Unchanged: 0/0
  8070 ;; Data sizes:     COMMON   BANK0   BANK1   BANK3   BANK2
  8071 ;;      Params:         0       0       0       0       0
  8072 ;;      Locals:         0       0       0       0       0
  8073 ;;      Temps:          2       0       0       0       0
  8074 ;;      Totals:         2       0       0       0       0
  8075 ;;Total ram usage:        2 bytes
  8076 ;; Hardware stack levels used:    1
  8077 ;; Hardware stack levels required when called:    3
  8078 ;; This function calls:
  8079 ;;		_LCD_Command
  8080 ;;		_LCD_Port
  8081 ;; This function is called by:
  8082 ;;		_main
  8083 ;; This function uses a non-reentrant model
  8084 ;;
  8085                           
  8086                           
  8087                           ;psect for function _LCD_Init
  8088  1125                     _LCD_Init:
  8089  1125                     l3669:	
  8090                           ;incstack = 0
  8091                           ; Regs used in _LCD_Init: [wreg+status,2+status,0+pclath+cstack]
  8092                           
  8093                           
  8094                           ;LCD.c: 47:     RE0=0;
  8095  1125  1283               	bcf	3,5	;RP0=0, select bank0
  8096  1126  1303               	bcf	3,6	;RP1=0, select bank0
  8097  1127  1009               	bcf	9,0	;volatile
  8098                           
  8099                           ;LCD.c: 48:     RE1=0;
  8100  1128  1089               	bcf	9,1	;volatile
  8101  1129                     l3671:
  8102                           
  8103                           ;LCD.c: 49:     LCD_Port(0x00);
  8104  1129  3000               	movlw	0
  8105  112A  160A  158A  256F  160A  118A  	fcall	_LCD_Port
  8106  112F                     l3673:
  8107                           
  8108                           ;LCD.c: 50:     _delay((unsigned long)((20)*(4000000/4000.0)));
  8109  112F  301A               	movlw	26
  8110  1130  00F7               	movwf	??_LCD_Init+1
  8111  1131  30F8               	movlw	248
  8112  1132  00F6               	movwf	??_LCD_Init
  8113  1133                     u5947:
  8114  1133  0BF6               	decfsz	??_LCD_Init,f
  8115  1134  2933               	goto	u5947
  8116  1135  0BF7               	decfsz	??_LCD_Init+1,f
  8117  1136  2933               	goto	u5947
  8118  1137  0000               	nop
  8119  1138                     l3675:
  8120                           
  8121                           ;LCD.c: 51:     LCD_Command(0x30);
  8122  1138  3030               	movlw	48
  8123  1139  160A  158A  25C6  160A  118A  	fcall	_LCD_Command
  8124                           
  8125                           ;LCD.c: 52:     _delay((unsigned long)((5)*(4000000/4000.0)));
  8126  113E  3007               	movlw	7
  8127  113F  00F7               	movwf	??_LCD_Init+1
  8128  1140  307D               	movlw	125
  8129  1141  00F6               	movwf	??_LCD_Init
  8130  1142                     u5957:
  8131  1142  0BF6               	decfsz	??_LCD_Init,f
  8132  1143  2942               	goto	u5957
  8133  1144  0BF7               	decfsz	??_LCD_Init+1,f
  8134  1145  2942               	goto	u5957
  8135  1146                     l3677:
  8136                           
  8137                           ;LCD.c: 53:     LCD_Command(0x30);
  8138  1146  3030               	movlw	48
  8139  1147  160A  158A  25C6  160A  118A  	fcall	_LCD_Command
  8140  114C                     l3679:
  8141                           
  8142                           ;LCD.c: 54:     _delay((unsigned long)((11)*(4000000/4000.0)));
  8143  114C  300F               	movlw	15
  8144  114D  00F7               	movwf	??_LCD_Init+1
  8145  114E  3047               	movlw	71
  8146  114F  00F6               	movwf	??_LCD_Init
  8147  1150                     u5967:
  8148  1150  0BF6               	decfsz	??_LCD_Init,f
  8149  1151  2950               	goto	u5967
  8150  1152  0BF7               	decfsz	??_LCD_Init+1,f
  8151  1153  2950               	goto	u5967
  8152  1154  2955               	nop2
  8153                           
  8154                           ;LCD.c: 55:     LCD_Command(0x30);
  8155  1155  3030               	movlw	48
  8156  1156  160A  158A  25C6  160A  118A  	fcall	_LCD_Command
  8157                           
  8158                           ;LCD.c: 56:     LCD_Command(0x38);
  8159  115B  3038               	movlw	56
  8160  115C  160A  158A  25C6  160A  118A  	fcall	_LCD_Command
  8161                           
  8162                           ;LCD.c: 57:     LCD_Command(0x0C);
  8163  1161  300C               	movlw	12
  8164  1162  160A  158A  25C6  160A  118A  	fcall	_LCD_Command
  8165                           
  8166                           ;LCD.c: 58:     LCD_Command(0x01);
  8167  1167  3001               	movlw	1
  8168  1168  160A  158A  25C6  160A  118A  	fcall	_LCD_Command
  8169                           
  8170                           ;LCD.c: 59:     LCD_Command(0x06);
  8171  116D  3006               	movlw	6
  8172  116E  160A  158A  25C6  160A  118A  	fcall	_LCD_Command
  8173  1173                     l124:
  8174  1173  0008               	return
  8175  1174                     __end_of_LCD_Init:
  8176                           
  8177                           	psect	text36
  8178  1DC6                     __ptext36:	
  8179 ;; *************** function _LCD_Command *****************
  8180 ;; Defined at:
  8181 ;;		line 32 in file "LCD.c"
  8182 ;; Parameters:    Size  Location     Type
  8183 ;;  a               1    wreg     unsigned char 
  8184 ;; Auto vars:     Size  Location     Type
  8185 ;;  a               1    5[COMMON] unsigned char 
  8186 ;; Return value:  Size  Location     Type
  8187 ;;                  1    wreg      void 
  8188 ;; Registers used:
  8189 ;;		wreg, status,2, status,0, pclath, cstack
  8190 ;; Tracked objects:
  8191 ;;		On entry : 0/0
  8192 ;;		On exit  : 0/0
  8193 ;;		Unchanged: 0/0
  8194 ;; Data sizes:     COMMON   BANK0   BANK1   BANK3   BANK2
  8195 ;;      Params:         0       0       0       0       0
  8196 ;;      Locals:         1       0       0       0       0
  8197 ;;      Temps:          2       0       0       0       0
  8198 ;;      Totals:         3       0       0       0       0
  8199 ;;Total ram usage:        3 bytes
  8200 ;; Hardware stack levels used:    1
  8201 ;; Hardware stack levels required when called:    2
  8202 ;; This function calls:
  8203 ;;		_LCD_Port
  8204 ;; This function is called by:
  8205 ;;		_LCD_clear
  8206 ;;		_LCD_Init
  8207 ;;		_LCD_Set_Cursor
  8208 ;; This function uses a non-reentrant model
  8209 ;;
  8210                           
  8211                           
  8212                           ;psect for function _LCD_Command
  8213  1DC6                     _LCD_Command:
  8214                           
  8215                           ;incstack = 0
  8216                           ; Regs used in _LCD_Command: [wreg+status,2+status,0+pclath+cstack]
  8217                           ;LCD_Command@a stored from wreg
  8218  1DC6  00F5               	movwf	LCD_Command@a
  8219  1DC7                     l3493:
  8220                           
  8221                           ;LCD.c: 33:     RE0=0;
  8222  1DC7  1283               	bcf	3,5	;RP0=0, select bank0
  8223  1DC8  1303               	bcf	3,6	;RP1=0, select bank0
  8224  1DC9  1009               	bcf	9,0	;volatile
  8225  1DCA                     l3495:
  8226                           
  8227                           ;LCD.c: 34:     LCD_Port(a);
  8228  1DCA  0875               	movf	LCD_Command@a,w
  8229  1DCB  160A  158A  256F  160A  158A  	fcall	_LCD_Port
  8230  1DD0                     l3497:
  8231                           
  8232                           ;LCD.c: 35:     RE1=1;
  8233  1DD0  1283               	bcf	3,5	;RP0=0, select bank0
  8234  1DD1  1303               	bcf	3,6	;RP1=0, select bank0
  8235  1DD2  1489               	bsf	9,1	;volatile
  8236  1DD3                     l3499:
  8237                           
  8238                           ;LCD.c: 36:     _delay((unsigned long)((4)*(4000000/4000.0)));
  8239  1DD3  3006               	movlw	6
  8240  1DD4  00F4               	movwf	??_LCD_Command+1
  8241  1DD5  3030               	movlw	48
  8242  1DD6  00F3               	movwf	??_LCD_Command
  8243  1DD7                     u5977:
  8244  1DD7  0BF3               	decfsz	??_LCD_Command,f
  8245  1DD8  2DD7               	goto	u5977
  8246  1DD9  0BF4               	decfsz	??_LCD_Command+1,f
  8247  1DDA  2DD7               	goto	u5977
  8248  1DDB  0000               	nop
  8249  1DDC                     l3501:
  8250                           
  8251                           ;LCD.c: 37:     RE1=0;
  8252  1DDC  1283               	bcf	3,5	;RP0=0, select bank0
  8253  1DDD  1303               	bcf	3,6	;RP1=0, select bank0
  8254  1DDE  1089               	bcf	9,1	;volatile
  8255  1DDF                     l3503:
  8256                           
  8257                           ;LCD.c: 38:     _delay((unsigned long)((2)*(4000000/4000.0)));
  8258  1DDF  3003               	movlw	3
  8259  1DE0  00F4               	movwf	??_LCD_Command+1
  8260  1DE1  3097               	movlw	151
  8261  1DE2  00F3               	movwf	??_LCD_Command
  8262  1DE3                     u5987:
  8263  1DE3  0BF3               	decfsz	??_LCD_Command,f
  8264  1DE4  2DE3               	goto	u5987
  8265  1DE5  0BF4               	decfsz	??_LCD_Command+1,f
  8266  1DE6  2DE3               	goto	u5987
  8267  1DE7  2DE8               	nop2
  8268  1DE8                     l118:
  8269  1DE8  0008               	return
  8270  1DE9                     __end_of_LCD_Command:
  8271                           
  8272                           	psect	text37
  8273  1D6F                     __ptext37:	
  8274 ;; *************** function _LCD_Port *****************
  8275 ;; Defined at:
  8276 ;;		line 18 in file "LCD.c"
  8277 ;; Parameters:    Size  Location     Type
  8278 ;;  a               1    wreg     unsigned char 
  8279 ;; Auto vars:     Size  Location     Type
  8280 ;;  a               1    2[COMMON] unsigned char 
  8281 ;; Return value:  Size  Location     Type
  8282 ;;                  1    wreg      void 
  8283 ;; Registers used:
  8284 ;;		wreg
  8285 ;; Tracked objects:
  8286 ;;		On entry : 0/0
  8287 ;;		On exit  : 0/0
  8288 ;;		Unchanged: 0/0
  8289 ;; Data sizes:     COMMON   BANK0   BANK1   BANK3   BANK2
  8290 ;;      Params:         0       0       0       0       0
  8291 ;;      Locals:         1       0       0       0       0
  8292 ;;      Temps:          0       0       0       0       0
  8293 ;;      Totals:         1       0       0       0       0
  8294 ;;Total ram usage:        1 bytes
  8295 ;; Hardware stack levels used:    1
  8296 ;; Hardware stack levels required when called:    1
  8297 ;; This function calls:
  8298 ;;		Nothing
  8299 ;; This function is called by:
  8300 ;;		_LCD_Write_Char
  8301 ;;		_LCD_Command
  8302 ;;		_LCD_Init
  8303 ;; This function uses a non-reentrant model
  8304 ;;
  8305                           
  8306                           
  8307                           ;psect for function _LCD_Port
  8308  1D6F                     _LCD_Port:
  8309                           
  8310                           ;incstack = 0
  8311                           ; Regs used in _LCD_Port: [wreg]
  8312                           ;LCD_Port@a stored from wreg
  8313  1D6F  00F2               	movwf	LCD_Port@a
  8314  1D70                     l3319:
  8315                           
  8316                           ;LCD.c: 19:     PORTD = a;
  8317  1D70  0872               	movf	LCD_Port@a,w
  8318  1D71  1283               	bcf	3,5	;RP0=0, select bank0
  8319  1D72  1303               	bcf	3,6	;RP1=0, select bank0
  8320  1D73  0088               	movwf	8	;volatile
  8321  1D74                     l115:
  8322  1D74  0008               	return
  8323  1D75                     __end_of_LCD_Port:
  8324                           
  8325                           	psect	text38
  8326  07F0                     __ptext38:	
  8327 ;; *************** function _Init_Transmit *****************
  8328 ;; Defined at:
  8329 ;;		line 15 in file "USART.c"
  8330 ;; Parameters:    Size  Location     Type
  8331 ;;		None
  8332 ;; Auto vars:     Size  Location     Type
  8333 ;;		None
  8334 ;; Return value:  Size  Location     Type
  8335 ;;                  1    wreg      void 
  8336 ;; Registers used:
  8337 ;;		None
  8338 ;; Tracked objects:
  8339 ;;		On entry : 0/0
  8340 ;;		On exit  : 0/0
  8341 ;;		Unchanged: 0/0
  8342 ;; Data sizes:     COMMON   BANK0   BANK1   BANK3   BANK2
  8343 ;;      Params:         0       0       0       0       0
  8344 ;;      Locals:         0       0       0       0       0
  8345 ;;      Temps:          0       0       0       0       0
  8346 ;;      Totals:         0       0       0       0       0
  8347 ;;Total ram usage:        0 bytes
  8348 ;; Hardware stack levels used:    1
  8349 ;; Hardware stack levels required when called:    1
  8350 ;; This function calls:
  8351 ;;		Nothing
  8352 ;; This function is called by:
  8353 ;;		_main
  8354 ;; This function uses a non-reentrant model
  8355 ;;
  8356                           
  8357                           
  8358                           ;psect for function _Init_Transmit
  8359  07F0                     _Init_Transmit:
  8360  07F0                     l2853:	
  8361                           ;incstack = 0
  8362                           ; Regs used in _Init_Transmit: []
  8363                           
  8364                           
  8365                           ;USART.c: 16:     TXSTAbits.TXEN = 1;
  8366  07F0  1683               	bsf	3,5	;RP0=1, select bank1
  8367  07F1  1303               	bcf	3,6	;RP1=0, select bank1
  8368  07F2  1698               	bsf	24,5	;volatile
  8369                           
  8370                           ;USART.c: 19:     PIR1bits.TXIF = 0;
  8371  07F3  1283               	bcf	3,5	;RP0=0, select bank0
  8372  07F4  1303               	bcf	3,6	;RP1=0, select bank0
  8373  07F5  120C               	bcf	12,4	;volatile
  8374                           
  8375                           ;USART.c: 20:     PIE1bits.TXIE = 0;
  8376  07F6  1683               	bsf	3,5	;RP0=1, select bank1
  8377  07F7  1303               	bcf	3,6	;RP1=0, select bank1
  8378  07F8  120C               	bcf	12,4	;volatile
  8379                           
  8380                           ;USART.c: 21:     INTCONbits.GIE = 0;
  8381  07F9  138B               	bcf	11,7	;volatile
  8382                           
  8383                           ;USART.c: 22:     INTCONbits.PEIE = 0;
  8384  07FA  130B               	bcf	11,6	;volatile
  8385                           
  8386                           ;USART.c: 24:     TRISCbits.TRISC7 = 1;
  8387  07FB  1787               	bsf	7,7	;volatile
  8388                           
  8389                           ;USART.c: 25:     TRISCbits.TRISC6 = 0;
  8390  07FC  1307               	bcf	7,6	;volatile
  8391  07FD                     l199:
  8392  07FD  0008               	return
  8393  07FE                     __end_of_Init_Transmit:
  8394                           
  8395                           	psect	text39
  8396  1D7C                     __ptext39:	
  8397 ;; *************** function _Init_Receive *****************
  8398 ;; Defined at:
  8399 ;;		line 30 in file "USART.c"
  8400 ;; Parameters:    Size  Location     Type
  8401 ;;		None
  8402 ;; Auto vars:     Size  Location     Type
  8403 ;;		None
  8404 ;; Return value:  Size  Location     Type
  8405 ;;                  1    wreg      void 
  8406 ;; Registers used:
  8407 ;;		None
  8408 ;; Tracked objects:
  8409 ;;		On entry : 0/0
  8410 ;;		On exit  : 0/0
  8411 ;;		Unchanged: 0/0
  8412 ;; Data sizes:     COMMON   BANK0   BANK1   BANK3   BANK2
  8413 ;;      Params:         0       0       0       0       0
  8414 ;;      Locals:         0       0       0       0       0
  8415 ;;      Temps:          0       0       0       0       0
  8416 ;;      Totals:         0       0       0       0       0
  8417 ;;Total ram usage:        0 bytes
  8418 ;; Hardware stack levels used:    1
  8419 ;; Hardware stack levels required when called:    1
  8420 ;; This function calls:
  8421 ;;		Nothing
  8422 ;; This function is called by:
  8423 ;;		_main
  8424 ;; This function uses a non-reentrant model
  8425 ;;
  8426                           
  8427                           
  8428                           ;psect for function _Init_Receive
  8429  1D7C                     _Init_Receive:
  8430  1D7C                     l2855:	
  8431                           ;incstack = 0
  8432                           ; Regs used in _Init_Receive: []
  8433                           
  8434                           
  8435                           ;USART.c: 31:     TXSTAbits.SYNC = 0;
  8436  1D7C  1683               	bsf	3,5	;RP0=1, select bank1
  8437  1D7D  1303               	bcf	3,6	;RP1=0, select bank1
  8438  1D7E  1218               	bcf	24,4	;volatile
  8439                           
  8440                           ;USART.c: 32:     RCSTAbits.SPEN = 1;
  8441  1D7F  1283               	bcf	3,5	;RP0=0, select bank0
  8442  1D80  1303               	bcf	3,6	;RP1=0, select bank0
  8443  1D81  1798               	bsf	24,7	;volatile
  8444                           
  8445                           ;USART.c: 37:     RCSTAbits.CREN = 1;
  8446  1D82  1618               	bsf	24,4	;volatile
  8447  1D83                     l202:
  8448  1D83  0008               	return
  8449  1D84                     __end_of_Init_Receive:
  8450                           
  8451                           	psect	text40
  8452  1D75                     __ptext40:	
  8453 ;; *************** function _ISR *****************
  8454 ;; Defined at:
  8455 ;;		line 63 in file "lab3_main.c"
  8456 ;; Parameters:    Size  Location     Type
  8457 ;;		None
  8458 ;; Auto vars:     Size  Location     Type
  8459 ;;		None
  8460 ;; Return value:  Size  Location     Type
  8461 ;;                  1    wreg      void 
  8462 ;; Registers used:
  8463 ;;		None
  8464 ;; Tracked objects:
  8465 ;;		On entry : 0/0
  8466 ;;		On exit  : 0/0
  8467 ;;		Unchanged: 0/0
  8468 ;; Data sizes:     COMMON   BANK0   BANK1   BANK3   BANK2
  8469 ;;      Params:         0       0       0       0       0
  8470 ;;      Locals:         0       0       0       0       0
  8471 ;;      Temps:          2       0       0       0       0
  8472 ;;      Totals:         2       0       0       0       0
  8473 ;;Total ram usage:        2 bytes
  8474 ;; Hardware stack levels used:    1
  8475 ;; This function calls:
  8476 ;;		Nothing
  8477 ;; This function is called by:
  8478 ;;		Interrupt level 1
  8479 ;; This function uses a non-reentrant model
  8480 ;;
  8481                           
  8482                           
  8483                           ;psect for function _ISR
  8484  1D75                     _ISR:
  8485  1D75                     i1l79:
  8486  1D75  0871               	movf	??_ISR+1,w
  8487  1D76  008A               	movwf	10
  8488  1D77  0E70               	swapf	??_ISR,w
  8489  1D78  0083               	movwf	3
  8490  1D79  0EFE               	swapf	btemp,f
  8491  1D7A  0E7E               	swapf	btemp,w
  8492  1D7B  0009               	retfie
  8493  1D7C                     __end_of_ISR:
  8494  007E                     btemp	set	126	;btemp
  8495  007E                     wtemp0	set	126
  8496                           
  8497                           	psect	intentry
  8498  0004                     __pintentry:	
  8499                           ;incstack = 0
  8500                           ; Regs used in _ISR: []
  8501                           
  8502  0004                     interrupt_function:
  8503  007E                     saved_w	set	btemp
  8504  0004  00FE               	movwf	btemp
  8505  0005  0E03               	swapf	3,w
  8506  0006  00F0               	movwf	??_ISR
  8507  0007  080A               	movf	10,w
  8508  0008  00F1               	movwf	??_ISR+1
  8509  0009  160A  158A  2D75   	ljmp	_ISR
  8510                           
  8511                           	psect	config
  8512                           
  8513                           ;Config register CONFIG1 @ 0x2007
  8514                           ;	Oscillator Selection bits
  8515                           ;	FOSC = XT, XT oscillator: Crystal/resonator on RA6/OSC2/CLKOUT and RA7/OSC1/CLKIN
  8516                           ;	Watchdog Timer Enable bit
  8517                           ;	WDTE = OFF, WDT disabled and can be enabled by SWDTEN bit of the WDTCON register
  8518                           ;	Power-up Timer Enable bit
  8519                           ;	PWRTE = OFF, PWRT disabled
  8520                           ;	RE3/MCLR pin function select bit
  8521                           ;	MCLRE = OFF, RE3/MCLR pin function is digital input, MCLR internally tied to VDD
  8522                           ;	Code Protection bit
  8523                           ;	CP = OFF, Program memory code protection is disabled
  8524                           ;	Data Code Protection bit
  8525                           ;	CPD = OFF, Data memory code protection is disabled
  8526                           ;	Brown Out Reset Selection bits
  8527                           ;	BOREN = OFF, BOR disabled
  8528                           ;	Internal External Switchover bit
  8529                           ;	IESO = OFF, Internal/External Switchover mode is disabled
  8530                           ;	Fail-Safe Clock Monitor Enabled bit
  8531                           ;	FCMEN = OFF, Fail-Safe Clock Monitor is disabled
  8532                           ;	Low Voltage Programming Enable bit
  8533                           ;	LVP = OFF, RB3 pin has digital I/O, HV on MCLR must be used for programming
  8534                           ;	In-Circuit Debugger Mode bit
  8535                           ;	DEBUG = 0x1, unprogrammed default
  8536  2007                     	org	8199
  8537  2007  20D1               	dw	8401
  8538                           
  8539                           ;Config register CONFIG2 @ 0x2008
  8540                           ;	Brown-out Reset Selection bit
  8541                           ;	BOR4V = BOR40V, Brown-out Reset set to 4.0V
  8542                           ;	Flash Program Memory Self Write Enable bits
  8543                           ;	WRT = OFF, Write protection off
  8544  2008                     	org	8200
  8545  2008  3FFF               	dw	16383
  8546                           
  8547                           	psect	text1_split_1
  8548  0021                     u5420:
  8549  0021                     l3795:
  8550  0021  1683               	bsf	3,5	;RP0=1, select bank1
  8551  0022  1303               	bcf	3,6	;RP1=0, select bank1
  8552  0023  0834               	movf	(sprintf@fval+2)^(0+128),w
  8553  0024  0433               	iorwf	(sprintf@fval+1)^(0+128),w
  8554  0025  0432               	iorwf	sprintf@fval^(0+128),w
  8555  0026  1903               	skipnz
  8556  0027  2829               	goto	u5431
  8557  0028  282A               	goto	u5430
  8558  0029                     u5431:
  8559  0029  28BA               	goto	l3815
  8560  002A                     u5430:
  8561  002A                     l3797:
  8562  002A  0832               	movf	sprintf@fval^(0+128),w
  8563  002B  1283               	bcf	3,5	;RP0=0, select bank0
  8564  002C  1303               	bcf	3,6	;RP1=0, select bank0
  8565  002D  00C4               	movwf	___fttol@f1
  8566  002E  1683               	bsf	3,5	;RP0=1, select bank1
  8567  002F  1303               	bcf	3,6	;RP1=0, select bank1
  8568  0030  0833               	movf	(sprintf@fval+1)^(0+128),w
  8569  0031  1283               	bcf	3,5	;RP0=0, select bank0
  8570  0032  1303               	bcf	3,6	;RP1=0, select bank0
  8571  0033  00C5               	movwf	___fttol@f1+1
  8572  0034  1683               	bsf	3,5	;RP0=1, select bank1
  8573  0035  1303               	bcf	3,6	;RP1=0, select bank1
  8574  0036  0834               	movf	(sprintf@fval+2)^(0+128),w
  8575  0037  1283               	bcf	3,5	;RP0=0, select bank0
  8576  0038  1303               	bcf	3,6	;RP1=0, select bank0
  8577  0039  00C6               	movwf	___fttol@f1+2
  8578  003A  160A  118A  2370  120A  118A  	fcall	___fttol
  8579  003F  1283               	bcf	3,5	;RP0=0, select bank0
  8580  0040  1303               	bcf	3,6	;RP1=0, select bank0
  8581  0041  0847               	movf	?___fttol+3,w
  8582  0042  0446               	iorwf	?___fttol+2,w
  8583  0043  0445               	iorwf	?___fttol+1,w
  8584  0044  0444               	iorwf	?___fttol,w
  8585  0045  1D03               	skipz
  8586  0046  2848               	goto	u5441
  8587  0047  2849               	goto	u5440
  8588  0048                     u5441:
  8589  0048  28BA               	goto	l3815
  8590  0049                     u5440:
  8591  0049                     l3799:
  8592  0049  1683               	bsf	3,5	;RP0=1, select bank1
  8593  004A  1303               	bcf	3,6	;RP1=0, select bank1
  8594  004B  0831               	movf	(sprintf@eexp+1)^(0+128),w
  8595  004C  3A80               	xorlw	128
  8596  004D  00FF               	movwf	btemp+1
  8597  004E  3080               	movlw	128
  8598  004F  027F               	subwf	btemp+1,w
  8599  0050  1D03               	skipz
  8600  0051  2854               	goto	u5455
  8601  0052  3002               	movlw	2
  8602  0053  0230               	subwf	sprintf@eexp^(0+128),w
  8603  0054                     u5455:
  8604  0054  1C03               	skipc
  8605  0055  2857               	goto	u5451
  8606  0056  2858               	goto	u5450
  8607  0057                     u5451:
  8608  0057  28BA               	goto	l3815
  8609  0058                     u5450:
  8610  0058                     l3801:
  8611                           
  8612                           ;D:\Microchip\xc8\v2.31\pic\sources\c90\common\doprnt.c: 1146:      if(tmpval.integ < 4.
      +                          294967296){
  8613  0058  1683               	bsf	3,5	;RP0=1, select bank1
  8614  0059  1303               	bcf	3,6	;RP1=0, select bank1
  8615  005A  0828               	movf	sprintf@tmpval^(0+128),w
  8616  005B  00F2               	movwf	___ftge@ff1
  8617  005C  0829               	movf	(sprintf@tmpval+1)^(0+128),w
  8618  005D  00F3               	movwf	___ftge@ff1+1
  8619  005E  082A               	movf	(sprintf@tmpval+2)^(0+128),w
  8620  005F  00F4               	movwf	___ftge@ff1+2
  8621  0060  3070               	movlw	112
  8622  0061  00F5               	movwf	___ftge@ff2
  8623  0062  3089               	movlw	137
  8624  0063  00F6               	movwf	___ftge@ff2+1
  8625  0064  3040               	movlw	64
  8626  0065  00F7               	movwf	___ftge@ff2+2
  8627  0066  160A  158A  2702  120A  118A  	fcall	___ftge
  8628  006B  1803               	btfsc	3,0
  8629  006C  286E               	goto	u5461
  8630  006D  286F               	goto	u5460
  8631  006E                     u5461:
  8632  006E  2878               	goto	l3805
  8633  006F                     u5460:
  8634  006F                     l3803:
  8635                           
  8636                           ;D:\Microchip\xc8\v2.31\pic\sources\c90\common\doprnt.c: 1147:       eexp -= (sizeof dpo
      +                          wers/sizeof dpowers[0])-1;
  8637  006F  30F7               	movlw	247
  8638  0070  1683               	bsf	3,5	;RP0=1, select bank1
  8639  0071  1303               	bcf	3,6	;RP1=0, select bank1
  8640  0072  07B0               	addwf	sprintf@eexp^(0+128),f
  8641  0073  1803               	skipnc
  8642  0074  0AB1               	incf	(sprintf@eexp+1)^(0+128),f
  8643  0075  30FF               	movlw	255
  8644  0076  07B1               	addwf	(sprintf@eexp+1)^(0+128),f
  8645                           
  8646                           ;D:\Microchip\xc8\v2.31\pic\sources\c90\common\doprnt.c: 1148:      }else{
  8647  0077  2880               	goto	l3807
  8648  0078                     l3805:
  8649                           
  8650                           ;D:\Microchip\xc8\v2.31\pic\sources\c90\common\doprnt.c: 1149:       eexp -= (sizeof dpo
      +                          wers/sizeof dpowers[0])-2;
  8651  0078  30F8               	movlw	248
  8652  0079  1683               	bsf	3,5	;RP0=1, select bank1
  8653  007A  1303               	bcf	3,6	;RP1=0, select bank1
  8654  007B  07B0               	addwf	sprintf@eexp^(0+128),f
  8655  007C  1803               	skipnc
  8656  007D  0AB1               	incf	(sprintf@eexp+1)^(0+128),f
  8657  007E  30FF               	movlw	255
  8658  007F  07B1               	addwf	(sprintf@eexp+1)^(0+128),f
  8659  0080                     l3807:
  8660                           
  8661                           ;D:\Microchip\xc8\v2.31\pic\sources\c90\common\doprnt.c: 1151:      tmpval.integ = scale
      +                          (eexp);
  8662  0080  0830               	movf	sprintf@eexp^(0+128),w
  8663  0081  120A  158A  225D  120A  118A  	fcall	_scale
  8664  0086  1283               	bcf	3,5	;RP0=0, select bank0
  8665  0087  1303               	bcf	3,6	;RP1=0, select bank0
  8666  0088  083B               	movf	?_scale,w
  8667  0089  1683               	bsf	3,5	;RP0=1, select bank1
  8668  008A  1303               	bcf	3,6	;RP1=0, select bank1
  8669  008B  00A8               	movwf	sprintf@tmpval^(0+128)
  8670  008C  1283               	bcf	3,5	;RP0=0, select bank0
  8671  008D  1303               	bcf	3,6	;RP1=0, select bank0
  8672  008E  083C               	movf	?_scale+1,w
  8673  008F  1683               	bsf	3,5	;RP0=1, select bank1
  8674  0090  1303               	bcf	3,6	;RP1=0, select bank1
  8675  0091  00A9               	movwf	(sprintf@tmpval+1)^(0+128)
  8676  0092  1283               	bcf	3,5	;RP0=0, select bank0
  8677  0093  1303               	bcf	3,6	;RP1=0, select bank0
  8678  0094  083D               	movf	?_scale+2,w
  8679  0095  1683               	bsf	3,5	;RP0=1, select bank1
  8680  0096  1303               	bcf	3,6	;RP1=0, select bank1
  8681  0097  00AA               	movwf	(sprintf@tmpval+2)^(0+128)
  8682  0098                     l3811:	
  8683                           ;D:\Microchip\xc8\v2.31\pic\sources\c90\common\doprnt.c: 1152:      val = ((sizeof(doubl
      +                          e)== 3) ? _tdiv_to_l_(fval,tmpval.integ) : _div_to_l_(fval,tmpval.integ));
  8684                           
  8685  0098  0832               	movf	sprintf@fval^(0+128),w
  8686  0099  00F2               	movwf	__tdiv_to_l_@f1
  8687  009A  0833               	movf	(sprintf@fval+1)^(0+128),w
  8688  009B  00F3               	movwf	__tdiv_to_l_@f1+1
  8689  009C  0834               	movf	(sprintf@fval+2)^(0+128),w
  8690  009D  00F4               	movwf	__tdiv_to_l_@f1+2
  8691  009E  0828               	movf	sprintf@tmpval^(0+128),w
  8692  009F  00F5               	movwf	__tdiv_to_l_@f2
  8693  00A0  0829               	movf	(sprintf@tmpval+1)^(0+128),w
  8694  00A1  00F6               	movwf	__tdiv_to_l_@f2+1
  8695  00A2  082A               	movf	(sprintf@tmpval+2)^(0+128),w
  8696  00A3  00F7               	movwf	__tdiv_to_l_@f2+2
  8697  00A4  160A  118A  23FC  120A  118A  	fcall	__tdiv_to_l_
  8698  00A9  0875               	movf	?__tdiv_to_l_+3,w
  8699  00AA  1683               	bsf	3,5	;RP0=1, select bank1
  8700  00AB  1303               	bcf	3,6	;RP1=0, select bank1
  8701  00AC  00AF               	movwf	(sprintf@val+3)^(0+128)
  8702  00AD  0874               	movf	?__tdiv_to_l_+2,w
  8703  00AE  00AE               	movwf	(sprintf@val+2)^(0+128)
  8704  00AF  0873               	movf	?__tdiv_to_l_+1,w
  8705  00B0  00AD               	movwf	(sprintf@val+1)^(0+128)
  8706  00B1  0872               	movf	?__tdiv_to_l_,w
  8707  00B2  00AC               	movwf	sprintf@val^(0+128)
  8708  00B3                     l3813:
  8709                           
  8710                           ;D:\Microchip\xc8\v2.31\pic\sources\c90\common\doprnt.c: 1155:      fval = 0.0;
  8711  00B3  3000               	movlw	0
  8712  00B4  00B2               	movwf	sprintf@fval^(0+128)
  8713  00B5  3000               	movlw	0
  8714  00B6  00B3               	movwf	(sprintf@fval+1)^(0+128)
  8715  00B7  3000               	movlw	0
  8716  00B8  00B4               	movwf	(sprintf@fval+2)^(0+128)
  8717                           
  8718                           ;D:\Microchip\xc8\v2.31\pic\sources\c90\common\doprnt.c: 1156:     } else {
  8719  00B9  2937               	goto	l3819
  8720  00BA                     l3815:
  8721                           
  8722                           ;D:\Microchip\xc8\v2.31\pic\sources\c90\common\doprnt.c: 1157:      val = (unsigned long
      +                          )fval;
  8723  00BA  1683               	bsf	3,5	;RP0=1, select bank1
  8724  00BB  1303               	bcf	3,6	;RP1=0, select bank1
  8725  00BC  0832               	movf	sprintf@fval^(0+128),w
  8726  00BD  1283               	bcf	3,5	;RP0=0, select bank0
  8727  00BE  1303               	bcf	3,6	;RP1=0, select bank0
  8728  00BF  00C4               	movwf	___fttol@f1
  8729  00C0  1683               	bsf	3,5	;RP0=1, select bank1
  8730  00C1  1303               	bcf	3,6	;RP1=0, select bank1
  8731  00C2  0833               	movf	(sprintf@fval+1)^(0+128),w
  8732  00C3  1283               	bcf	3,5	;RP0=0, select bank0
  8733  00C4  1303               	bcf	3,6	;RP1=0, select bank0
  8734  00C5  00C5               	movwf	___fttol@f1+1
  8735  00C6  1683               	bsf	3,5	;RP0=1, select bank1
  8736  00C7  1303               	bcf	3,6	;RP1=0, select bank1
  8737  00C8  0834               	movf	(sprintf@fval+2)^(0+128),w
  8738  00C9  1283               	bcf	3,5	;RP0=0, select bank0
  8739  00CA  1303               	bcf	3,6	;RP1=0, select bank0
  8740  00CB  00C6               	movwf	___fttol@f1+2
  8741  00CC  160A  118A  2370  120A  118A  	fcall	___fttol
  8742  00D1  1283               	bcf	3,5	;RP0=0, select bank0
  8743  00D2  1303               	bcf	3,6	;RP1=0, select bank0
  8744  00D3  0847               	movf	?___fttol+3,w
  8745  00D4  1683               	bsf	3,5	;RP0=1, select bank1
  8746  00D5  1303               	bcf	3,6	;RP1=0, select bank1
  8747  00D6  00AF               	movwf	(sprintf@val+3)^(0+128)
  8748  00D7  1283               	bcf	3,5	;RP0=0, select bank0
  8749  00D8  1303               	bcf	3,6	;RP1=0, select bank0
  8750  00D9  0846               	movf	?___fttol+2,w
  8751  00DA  1683               	bsf	3,5	;RP0=1, select bank1
  8752  00DB  1303               	bcf	3,6	;RP1=0, select bank1
  8753  00DC  00AE               	movwf	(sprintf@val+2)^(0+128)
  8754  00DD  1283               	bcf	3,5	;RP0=0, select bank0
  8755  00DE  1303               	bcf	3,6	;RP1=0, select bank0
  8756  00DF  0845               	movf	?___fttol+1,w
  8757  00E0  1683               	bsf	3,5	;RP0=1, select bank1
  8758  00E1  1303               	bcf	3,6	;RP1=0, select bank1
  8759  00E2  00AD               	movwf	(sprintf@val+1)^(0+128)
  8760  00E3  1283               	bcf	3,5	;RP0=0, select bank0
  8761  00E4  1303               	bcf	3,6	;RP1=0, select bank0
  8762  00E5  0844               	movf	?___fttol,w
  8763  00E6  1683               	bsf	3,5	;RP0=1, select bank1
  8764  00E7  1303               	bcf	3,6	;RP1=0, select bank1
  8765  00E8  00AC               	movwf	sprintf@val^(0+128)
  8766                           
  8767                           ;D:\Microchip\xc8\v2.31\pic\sources\c90\common\doprnt.c: 1158:      fval -= (double)val;
  8768  00E9  082F               	movf	(sprintf@val+3)^(0+128),w
  8769  00EA  1283               	bcf	3,5	;RP0=0, select bank0
  8770  00EB  1303               	bcf	3,6	;RP1=0, select bank0
  8771  00EC  00A3               	movwf	___lltoft@c+3
  8772  00ED  1683               	bsf	3,5	;RP0=1, select bank1
  8773  00EE  1303               	bcf	3,6	;RP1=0, select bank1
  8774  00EF  082E               	movf	(sprintf@val+2)^(0+128),w
  8775  00F0  1283               	bcf	3,5	;RP0=0, select bank0
  8776  00F1  1303               	bcf	3,6	;RP1=0, select bank0
  8777  00F2  00A2               	movwf	___lltoft@c+2
  8778  00F3  1683               	bsf	3,5	;RP0=1, select bank1
  8779  00F4  1303               	bcf	3,6	;RP1=0, select bank1
  8780  00F5  082D               	movf	(sprintf@val+1)^(0+128),w
  8781  00F6  1283               	bcf	3,5	;RP0=0, select bank0
  8782  00F7  1303               	bcf	3,6	;RP1=0, select bank0
  8783  00F8  00A1               	movwf	___lltoft@c+1
  8784  00F9  1683               	bsf	3,5	;RP0=1, select bank1
  8785  00FA  1303               	bcf	3,6	;RP1=0, select bank1
  8786  00FB  082C               	movf	sprintf@val^(0+128),w
  8787  00FC  1283               	bcf	3,5	;RP0=0, select bank0
  8788  00FD  1303               	bcf	3,6	;RP1=0, select bank0
  8789  00FE  00A0               	movwf	___lltoft@c
  8790  00FF  160A  158A  26CF  120A  118A  	fcall	___lltoft
  8791  0104  1283               	bcf	3,5	;RP0=0, select bank0
  8792  0105  1303               	bcf	3,6	;RP1=0, select bank0
  8793  0106  0820               	movf	?___lltoft,w
  8794  0107  00D8               	movwf	___ftsub@f2
  8795  0108  0821               	movf	?___lltoft+1,w
  8796  0109  00D9               	movwf	___ftsub@f2+1
  8797  010A  0822               	movf	?___lltoft+2,w
  8798  010B  00DA               	movwf	___ftsub@f2+2
  8799  010C  1683               	bsf	3,5	;RP0=1, select bank1
  8800  010D  1303               	bcf	3,6	;RP1=0, select bank1
  8801  010E  0832               	movf	sprintf@fval^(0+128),w
  8802  010F  1283               	bcf	3,5	;RP0=0, select bank0
  8803  0110  1303               	bcf	3,6	;RP1=0, select bank0
  8804  0111  00DB               	movwf	___ftsub@f1
  8805  0112  1683               	bsf	3,5	;RP0=1, select bank1
  8806  0113  1303               	bcf	3,6	;RP1=0, select bank1
  8807  0114  0833               	movf	(sprintf@fval+1)^(0+128),w
  8808  0115  1283               	bcf	3,5	;RP0=0, select bank0
  8809  0116  1303               	bcf	3,6	;RP1=0, select bank0
  8810  0117  00DC               	movwf	___ftsub@f1+1
  8811  0118  1683               	bsf	3,5	;RP0=1, select bank1
  8812  0119  1303               	bcf	3,6	;RP1=0, select bank1
  8813  011A  0834               	movf	(sprintf@fval+2)^(0+128),w
  8814  011B  1283               	bcf	3,5	;RP0=0, select bank0
  8815  011C  1303               	bcf	3,6	;RP1=0, select bank0
  8816  011D  00DD               	movwf	___ftsub@f1+2
  8817  011E  160A  158A  2631  120A  118A  	fcall	___ftsub
  8818  0123  1283               	bcf	3,5	;RP0=0, select bank0
  8819  0124  1303               	bcf	3,6	;RP1=0, select bank0
  8820  0125  0858               	movf	?___ftsub,w
  8821  0126  1683               	bsf	3,5	;RP0=1, select bank1
  8822  0127  1303               	bcf	3,6	;RP1=0, select bank1
  8823  0128  00B2               	movwf	sprintf@fval^(0+128)
  8824  0129  1283               	bcf	3,5	;RP0=0, select bank0
  8825  012A  1303               	bcf	3,6	;RP1=0, select bank0
  8826  012B  0859               	movf	?___ftsub+1,w
  8827  012C  1683               	bsf	3,5	;RP0=1, select bank1
  8828  012D  1303               	bcf	3,6	;RP1=0, select bank1
  8829  012E  00B3               	movwf	(sprintf@fval+1)^(0+128)
  8830  012F  1283               	bcf	3,5	;RP0=0, select bank0
  8831  0130  1303               	bcf	3,6	;RP1=0, select bank0
  8832  0131  085A               	movf	?___ftsub+2,w
  8833  0132  1683               	bsf	3,5	;RP0=1, select bank1
  8834  0133  1303               	bcf	3,6	;RP1=0, select bank1
  8835  0134  00B4               	movwf	(sprintf@fval+2)^(0+128)
  8836  0135                     l3817:
  8837                           
  8838                           ;D:\Microchip\xc8\v2.31\pic\sources\c90\common\doprnt.c: 1159:      eexp = 0;
  8839  0135  01B0               	clrf	sprintf@eexp^(0+128)
  8840  0136  01B1               	clrf	(sprintf@eexp+1)^(0+128)
  8841  0137                     l3819:
  8842                           
  8843                           ;D:\Microchip\xc8\v2.31\pic\sources\c90\common\doprnt.c: 1162:     for(c = 1 ; c != (siz
      +                          eof dpowers/sizeof dpowers[0]) ; c++)
  8844  0137  01B8               	clrf	sprintf@c^(0+128)
  8845  0138  0AB8               	incf	sprintf@c^(0+128),f
  8846  0139                     l3825:
  8847                           
  8848                           ;D:\Microchip\xc8\v2.31\pic\sources\c90\common\doprnt.c: 1163:      if(val < dpowers[c])
  8849  0139  0838               	movf	sprintf@c^(0+128),w
  8850  013A  1283               	bcf	3,5	;RP0=0, select bank0
  8851  013B  1303               	bcf	3,6	;RP1=0, select bank0
  8852  013C  00E7               	movwf	??_sprintf
  8853  013D  3001               	movlw	1
  8854  013E                     u5475:
  8855  013E  1003               	clrc
  8856  013F  0DE7               	rlf	??_sprintf,f
  8857  0140  3EFF               	addlw	-1
  8858  0141  1D03               	skipz
  8859  0142  293E               	goto	u5475
  8860  0143  1003               	clrc
  8861  0144  0D67               	rlf	??_sprintf,w
  8862  0145  3E4F               	addlw	low ((_dpowers-__stringbase)| (0+32768))
  8863  0146  0084               	movwf	4
  8864  0147  160A  118A  200A  120A  118A  	fcall	stringdir
  8865  014C  00E8               	movwf	??_sprintf+1
  8866  014D  160A  118A  200A  120A  118A  	fcall	stringdir
  8867  0152  00E9               	movwf	??_sprintf+2
  8868  0153  160A  118A  200A  120A  118A  	fcall	stringdir
  8869  0158  00EA               	movwf	??_sprintf+3
  8870  0159  160A  118A  200A  120A  118A  	fcall	stringdir
  8871  015E  00EB               	movwf	??_sprintf+4
  8872  015F  086B               	movf	??_sprintf+4,w
  8873  0160  1683               	bsf	3,5	;RP0=1, select bank1
  8874  0161  1303               	bcf	3,6	;RP1=0, select bank1
  8875  0162  022F               	subwf	(sprintf@val+3)^(0+128),w
  8876  0163  1D03               	skipz
  8877  0164  297B               	goto	u5485
  8878  0165  1283               	bcf	3,5	;RP0=0, select bank0
  8879  0166  1303               	bcf	3,6	;RP1=0, select bank0
  8880  0167  086A               	movf	??_sprintf+3,w
  8881  0168  1683               	bsf	3,5	;RP0=1, select bank1
  8882  0169  1303               	bcf	3,6	;RP1=0, select bank1
  8883  016A  022E               	subwf	(sprintf@val+2)^(0+128),w
  8884  016B  1D03               	skipz
  8885  016C  297B               	goto	u5485
  8886  016D  1283               	bcf	3,5	;RP0=0, select bank0
  8887  016E  1303               	bcf	3,6	;RP1=0, select bank0
  8888  016F  0869               	movf	??_sprintf+2,w
  8889  0170  1683               	bsf	3,5	;RP0=1, select bank1
  8890  0171  1303               	bcf	3,6	;RP1=0, select bank1
  8891  0172  022D               	subwf	(sprintf@val+1)^(0+128),w
  8892  0173  1D03               	skipz
  8893  0174  297B               	goto	u5485
  8894  0175  1283               	bcf	3,5	;RP0=0, select bank0
  8895  0176  1303               	bcf	3,6	;RP1=0, select bank0
  8896  0177  0868               	movf	??_sprintf+1,w
  8897  0178  1683               	bsf	3,5	;RP0=1, select bank1
  8898  0179  1303               	bcf	3,6	;RP1=0, select bank1
  8899  017A  022C               	subwf	sprintf@val^(0+128),w
  8900  017B                     u5485:
  8901  017B  1803               	skipnc
  8902  017C  297E               	goto	u5481
  8903  017D  297F               	goto	u5480
  8904  017E                     u5481:
  8905  017E  2980               	goto	l3829
  8906  017F                     u5480:
  8907  017F  298E               	goto	l3831
  8908  0180                     l3829:
  8909  0180  3001               	movlw	1
  8910  0181  1283               	bcf	3,5	;RP0=0, select bank0
  8911  0182  1303               	bcf	3,6	;RP1=0, select bank0
  8912  0183  00E7               	movwf	??_sprintf
  8913  0184  0867               	movf	??_sprintf,w
  8914  0185  1683               	bsf	3,5	;RP0=1, select bank1
  8915  0186  1303               	bcf	3,6	;RP1=0, select bank1
  8916  0187  07B8               	addwf	sprintf@c^(0+128),f
  8917  0188  300A               	movlw	10
  8918  0189  0638               	xorwf	sprintf@c^(0+128),w
  8919  018A  1D03               	btfss	3,2
  8920  018B  298D               	goto	u5491
  8921  018C  298E               	goto	u5490
  8922  018D                     u5491:
  8923  018D  2939               	goto	l3825
  8924  018E                     u5490:
  8925  018E                     l3831:
  8926                           
  8927                           ;D:\Microchip\xc8\v2.31\pic\sources\c90\common\doprnt.c: 1168:     width -= prec + c + e
      +                          exp;
  8928  018E  0838               	movf	sprintf@c^(0+128),w
  8929  018F  0736               	addwf	sprintf@prec^(0+128),w
  8930  0190  1283               	bcf	3,5	;RP0=0, select bank0
  8931  0191  1303               	bcf	3,6	;RP1=0, select bank0
  8932  0192  00E7               	movwf	??_sprintf
  8933  0193  1683               	bsf	3,5	;RP0=1, select bank1
  8934  0194  1303               	bcf	3,6	;RP1=0, select bank1
  8935  0195  0837               	movf	(sprintf@prec+1)^(0+128),w
  8936  0196  1803               	skipnc
  8937  0197  0A37               	incf	(sprintf@prec+1)^(0+128),w
  8938  0198  1283               	bcf	3,5	;RP0=0, select bank0
  8939  0199  1303               	bcf	3,6	;RP1=0, select bank0
  8940  019A  00E8               	movwf	??_sprintf+1
  8941  019B  1683               	bsf	3,5	;RP0=1, select bank1
  8942  019C  1303               	bcf	3,6	;RP1=0, select bank1
  8943  019D  0830               	movf	sprintf@eexp^(0+128),w
  8944  019E  1283               	bcf	3,5	;RP0=0, select bank0
  8945  019F  1303               	bcf	3,6	;RP1=0, select bank0
  8946  01A0  0767               	addwf	??_sprintf,w
  8947  01A1  00E9               	movwf	??_sprintf+2
  8948  01A2  1683               	bsf	3,5	;RP0=1, select bank1
  8949  01A3  1303               	bcf	3,6	;RP1=0, select bank1
  8950  01A4  0831               	movf	(sprintf@eexp+1)^(0+128),w
  8951  01A5  1803               	skipnc
  8952  01A6  0A31               	incf	(sprintf@eexp+1)^(0+128),w
  8953  01A7  1283               	bcf	3,5	;RP0=0, select bank0
  8954  01A8  1303               	bcf	3,6	;RP1=0, select bank0
  8955  01A9  0768               	addwf	??_sprintf+1,w
  8956  01AA  00EA               	movwf	??_sprintf+3
  8957  01AB  0869               	movf	??_sprintf+2,w
  8958  01AC  1683               	bsf	3,5	;RP0=1, select bank1
  8959  01AD  1303               	bcf	3,6	;RP1=0, select bank1
  8960  01AE  02A6               	subwf	sprintf@width^(0+128),f
  8961  01AF  1283               	bcf	3,5	;RP0=0, select bank0
  8962  01B0  1303               	bcf	3,6	;RP1=0, select bank0
  8963  01B1  086A               	movf	??_sprintf+3,w
  8964  01B2  1683               	bsf	3,5	;RP0=1, select bank1
  8965  01B3  1303               	bcf	3,6	;RP1=0, select bank1
  8966  01B4  1C03               	skipc
  8967  01B5  03A7               	decf	(sprintf@width+1)^(0+128),f
  8968  01B6  02A7               	subwf	(sprintf@width+1)^(0+128),f
  8969                           
  8970                           ;D:\Microchip\xc8\v2.31\pic\sources\c90\common\doprnt.c: 1169:     if(
  8971  01B7  0836               	movf	sprintf@prec^(0+128),w
  8972  01B8  0437               	iorwf	(sprintf@prec+1)^(0+128),w
  8973  01B9  1903               	btfsc	3,2
  8974  01BA  29BC               	goto	u5501
  8975  01BB  29BD               	goto	u5500
  8976  01BC                     u5501:
  8977  01BC  29C3               	goto	l3835
  8978  01BD                     u5500:
  8979  01BD                     l3833:
  8980                           
  8981                           ;D:\Microchip\xc8\v2.31\pic\sources\c90\common\doprnt.c: 1174:      width--;
  8982  01BD  30FF               	movlw	255
  8983  01BE  07A6               	addwf	sprintf@width^(0+128),f
  8984  01BF  1803               	skipnc
  8985  01C0  0AA7               	incf	(sprintf@width+1)^(0+128),f
  8986  01C1  30FF               	movlw	255
  8987  01C2  07A7               	addwf	(sprintf@width+1)^(0+128),f
  8988  01C3                     l3835:
  8989                           
  8990                           ;D:\Microchip\xc8\v2.31\pic\sources\c90\common\doprnt.c: 1175:     if(flag & 0x03)
  8991  01C3  3003               	movlw	3
  8992  01C4  0524               	andwf	sprintf@flag^(0+128),w
  8993  01C5  1283               	bcf	3,5	;RP0=0, select bank0
  8994  01C6  1303               	bcf	3,6	;RP1=0, select bank0
  8995  01C7  00E7               	movwf	??_sprintf
  8996  01C8  3000               	movlw	0
  8997  01C9  1683               	bsf	3,5	;RP0=1, select bank1
  8998  01CA  1303               	bcf	3,6	;RP1=0, select bank1
  8999  01CB  0525               	andwf	(sprintf@flag+1)^(0+128),w
  9000  01CC  1283               	bcf	3,5	;RP0=0, select bank0
  9001  01CD  1303               	bcf	3,6	;RP1=0, select bank0
  9002  01CE  00E8               	movwf	??_sprintf+1
  9003  01CF  0867               	movf	??_sprintf,w
  9004  01D0  0468               	iorwf	??_sprintf+1,w
  9005  01D1  1903               	btfsc	3,2
  9006  01D2  29D4               	goto	u5511
  9007  01D3  29D5               	goto	u5510
  9008  01D4                     u5511:
  9009  01D4  29F2               	goto	l3845
  9010  01D5                     u5510:
  9011  01D5                     l3837:
  9012                           
  9013                           ;D:\Microchip\xc8\v2.31\pic\sources\c90\common\doprnt.c: 1176:      width--;
  9014  01D5  30FF               	movlw	255
  9015  01D6  1683               	bsf	3,5	;RP0=1, select bank1
  9016  01D7  1303               	bcf	3,6	;RP1=0, select bank1
  9017  01D8  07A6               	addwf	sprintf@width^(0+128),f
  9018  01D9  1803               	skipnc
  9019  01DA  0AA7               	incf	(sprintf@width+1)^(0+128),f
  9020  01DB  30FF               	movlw	255
  9021  01DC  07A7               	addwf	(sprintf@width+1)^(0+128),f
  9022  01DD  29F2               	goto	l3845
  9023  01DE                     l3839:
  9024                           
  9025                           ;D:\Microchip\xc8\v2.31\pic\sources\c90\common\doprnt.c: 1207:       ((*sp++ = (' ')));
  9026  01DE  3020               	movlw	32
  9027  01DF  1283               	bcf	3,5	;RP0=0, select bank0
  9028  01E0  1303               	bcf	3,6	;RP1=0, select bank0
  9029  01E1  00E7               	movwf	??_sprintf
  9030  01E2  1683               	bsf	3,5	;RP0=1, select bank1
  9031  01E3  1303               	bcf	3,6	;RP1=0, select bank1
  9032  01E4  0835               	movf	sprintf@sp^(0+128),w
  9033  01E5  0084               	movwf	4
  9034  01E6  1283               	bcf	3,5	;RP0=0, select bank0
  9035  01E7  1303               	bcf	3,6	;RP1=0, select bank0
  9036  01E8  0867               	movf	??_sprintf,w
  9037  01E9  1383               	bcf	3,7	;select IRP bank0
  9038  01EA  0080               	movwf	0
  9039  01EB                     l3841:
  9040  01EB  3001               	movlw	1
  9041  01EC  00E7               	movwf	??_sprintf
  9042  01ED  0867               	movf	??_sprintf,w
  9043  01EE  1683               	bsf	3,5	;RP0=1, select bank1
  9044  01EF  1303               	bcf	3,6	;RP1=0, select bank1
  9045  01F0  07B5               	addwf	sprintf@sp^(0+128),f
  9046  01F1  29D5               	goto	l3837
  9047  01F2                     l3845:
  9048                           
  9049                           ;D:\Microchip\xc8\v2.31\pic\sources\c90\common\doprnt.c: 1206:      while(width > 0) {
  9050  01F2  1683               	bsf	3,5	;RP0=1, select bank1
  9051  01F3  1303               	bcf	3,6	;RP1=0, select bank1
  9052  01F4  0827               	movf	(sprintf@width+1)^(0+128),w
  9053  01F5  3A80               	xorlw	128
  9054  01F6  00FF               	movwf	btemp+1
  9055  01F7  3080               	movlw	128
  9056  01F8  027F               	subwf	btemp+1,w
  9057  01F9  1D03               	skipz
  9058  01FA  29FD               	goto	u5525
  9059  01FB  3001               	movlw	1
  9060  01FC  0226               	subwf	sprintf@width^(0+128),w
  9061  01FD                     u5525:
  9062  01FD  1803               	skipnc
  9063  01FE  2A00               	goto	u5521
  9064  01FF  2A01               	goto	u5520
  9065  0200                     u5521:
  9066  0200  29DE               	goto	l3839
  9067  0201                     u5520:
  9068  0201                     l3847:
  9069                           
  9070                           ;D:\Microchip\xc8\v2.31\pic\sources\c90\common\doprnt.c: 1214:     if(flag & 0x03)
  9071  0201  3003               	movlw	3
  9072  0202  1683               	bsf	3,5	;RP0=1, select bank1
  9073  0203  1303               	bcf	3,6	;RP1=0, select bank1
  9074  0204  0524               	andwf	sprintf@flag^(0+128),w
  9075  0205  1283               	bcf	3,5	;RP0=0, select bank0
  9076  0206  1303               	bcf	3,6	;RP1=0, select bank0
  9077  0207  00E7               	movwf	??_sprintf
  9078  0208  3000               	movlw	0
  9079  0209  1683               	bsf	3,5	;RP0=1, select bank1
  9080  020A  1303               	bcf	3,6	;RP1=0, select bank1
  9081  020B  0525               	andwf	(sprintf@flag+1)^(0+128),w
  9082  020C  1283               	bcf	3,5	;RP0=0, select bank0
  9083  020D  1303               	bcf	3,6	;RP1=0, select bank0
  9084  020E  00E8               	movwf	??_sprintf+1
  9085  020F  0867               	movf	??_sprintf,w
  9086  0210  0468               	iorwf	??_sprintf+1,w
  9087  0211  1903               	btfsc	3,2
  9088  0212  2A14               	goto	u5531
  9089  0213  2A15               	goto	u5530
  9090  0214                     u5531:
  9091  0214  2AB9               	goto	l384
  9092  0215                     u5530:
  9093  0215                     l3849:
  9094                           
  9095                           ;D:\Microchip\xc8\v2.31\pic\sources\c90\common\doprnt.c: 1216:      ((*sp++ = ('-')));
  9096  0215  302D               	movlw	45
  9097  0216  00E7               	movwf	??_sprintf
  9098  0217  1683               	bsf	3,5	;RP0=1, select bank1
  9099  0218  1303               	bcf	3,6	;RP1=0, select bank1
  9100  0219  0835               	movf	sprintf@sp^(0+128),w
  9101  021A  0084               	movwf	4
  9102  021B  1283               	bcf	3,5	;RP0=0, select bank0
  9103  021C  1303               	bcf	3,6	;RP1=0, select bank0
  9104  021D  0867               	movf	??_sprintf,w
  9105  021E  1383               	bcf	3,7	;select IRP bank0
  9106  021F  0080               	movwf	0
  9107  0220                     l3851:
  9108  0220  3001               	movlw	1
  9109  0221  00E7               	movwf	??_sprintf
  9110  0222  0867               	movf	??_sprintf,w
  9111  0223  1683               	bsf	3,5	;RP0=1, select bank1
  9112  0224  1303               	bcf	3,6	;RP1=0, select bank1
  9113  0225  07B5               	addwf	sprintf@sp^(0+128),f
  9114  0226  2AB9               	goto	l384
  9115  0227                     l3853:
  9116                           
  9117                           ;D:\Microchip\xc8\v2.31\pic\sources\c90\common\doprnt.c: 1226:     {;D:\Microchip\xc8\v2
      +                          .31\pic\sources\c90\common\doprnt.c: 1227:      tmpval.vd = val/dpowers[c];
  9118  0227  0838               	movf	sprintf@c^(0+128),w
  9119  0228  1283               	bcf	3,5	;RP0=0, select bank0
  9120  0229  1303               	bcf	3,6	;RP1=0, select bank0
  9121  022A  00E7               	movwf	??_sprintf
  9122  022B  3001               	movlw	1
  9123  022C                     u5545:
  9124  022C  1003               	clrc
  9125  022D  0DE7               	rlf	??_sprintf,f
  9126  022E  3EFF               	addlw	-1
  9127  022F  1D03               	skipz
  9128  0230  2A2C               	goto	u5545
  9129  0231  1003               	clrc
  9130  0232  0D67               	rlf	??_sprintf,w
  9131  0233  3E4F               	addlw	low ((_dpowers-__stringbase)| (0+32768))
  9132  0234  0084               	movwf	4
  9133  0235  160A  118A  200A  120A  118A  	fcall	stringdir
  9134  023A  00F2               	movwf	___lldiv@divisor
  9135  023B  160A  118A  200A  120A  118A  	fcall	stringdir
  9136  0240  00F3               	movwf	___lldiv@divisor+1
  9137  0241  160A  118A  200A  120A  118A  	fcall	stringdir
  9138  0246  00F4               	movwf	___lldiv@divisor+2
  9139  0247  160A  118A  200A  120A  118A  	fcall	stringdir
  9140  024C  00F5               	movwf	___lldiv@divisor+3
  9141  024D  1683               	bsf	3,5	;RP0=1, select bank1
  9142  024E  1303               	bcf	3,6	;RP1=0, select bank1
  9143  024F  082F               	movf	(sprintf@val+3)^(0+128),w
  9144  0250  00F9               	movwf	___lldiv@dividend+3
  9145  0251  082E               	movf	(sprintf@val+2)^(0+128),w
  9146  0252  00F8               	movwf	___lldiv@dividend+2
  9147  0253  082D               	movf	(sprintf@val+1)^(0+128),w
  9148  0254  00F7               	movwf	___lldiv@dividend+1
  9149  0255  082C               	movf	sprintf@val^(0+128),w
  9150  0256  00F6               	movwf	___lldiv@dividend
  9151  0257  160A  118A  2223  120A  118A  	fcall	___lldiv
  9152  025C  0875               	movf	?___lldiv+3,w
  9153  025D  1683               	bsf	3,5	;RP0=1, select bank1
  9154  025E  1303               	bcf	3,6	;RP1=0, select bank1
  9155  025F  00AB               	movwf	(sprintf@tmpval+3)^(0+128)
  9156  0260  0874               	movf	?___lldiv+2,w
  9157  0261  00AA               	movwf	(sprintf@tmpval+2)^(0+128)
  9158  0262  0873               	movf	?___lldiv+1,w
  9159  0263  00A9               	movwf	(sprintf@tmpval+1)^(0+128)
  9160  0264  0872               	movf	?___lldiv,w
  9161  0265  00A8               	movwf	sprintf@tmpval^(0+128)
  9162  0266                     l3855:
  9163                           
  9164                           ;D:\Microchip\xc8\v2.31\pic\sources\c90\common\doprnt.c: 1228:      tmpval.vd %= 10;
  9165  0266  3000               	movlw	0
  9166  0267  1283               	bcf	3,5	;RP0=0, select bank0
  9167  0268  1303               	bcf	3,6	;RP1=0, select bank0
  9168  0269  00A8               	movwf	___llmod@divisor+3
  9169  026A  3000               	movlw	0
  9170  026B  00A7               	movwf	___llmod@divisor+2
  9171  026C  3000               	movlw	0
  9172  026D  00A6               	movwf	___llmod@divisor+1
  9173  026E  300A               	movlw	10
  9174  026F  00A5               	movwf	___llmod@divisor
  9175  0270  1683               	bsf	3,5	;RP0=1, select bank1
  9176  0271  1303               	bcf	3,6	;RP1=0, select bank1
  9177  0272  082B               	movf	(sprintf@tmpval+3)^(0+128),w
  9178  0273  1283               	bcf	3,5	;RP0=0, select bank0
  9179  0274  1303               	bcf	3,6	;RP1=0, select bank0
  9180  0275  00AC               	movwf	___llmod@dividend+3
  9181  0276  1683               	bsf	3,5	;RP0=1, select bank1
  9182  0277  1303               	bcf	3,6	;RP1=0, select bank1
  9183  0278  082A               	movf	(sprintf@tmpval+2)^(0+128),w
  9184  0279  1283               	bcf	3,5	;RP0=0, select bank0
  9185  027A  1303               	bcf	3,6	;RP1=0, select bank0
  9186  027B  00AB               	movwf	___llmod@dividend+2
  9187  027C  1683               	bsf	3,5	;RP0=1, select bank1
  9188  027D  1303               	bcf	3,6	;RP1=0, select bank1
  9189  027E  0829               	movf	(sprintf@tmpval+1)^(0+128),w
  9190  027F  1283               	bcf	3,5	;RP0=0, select bank0
  9191  0280  1303               	bcf	3,6	;RP1=0, select bank0
  9192  0281  00AA               	movwf	___llmod@dividend+1
  9193  0282  1683               	bsf	3,5	;RP0=1, select bank1
  9194  0283  1303               	bcf	3,6	;RP1=0, select bank1
  9195  0284  0828               	movf	sprintf@tmpval^(0+128),w
  9196  0285  1283               	bcf	3,5	;RP0=0, select bank0
  9197  0286  1303               	bcf	3,6	;RP1=0, select bank0
  9198  0287  00A9               	movwf	___llmod@dividend
  9199  0288  160A  118A  2174  120A  118A  	fcall	___llmod
  9200  028D  1283               	bcf	3,5	;RP0=0, select bank0
  9201  028E  1303               	bcf	3,6	;RP1=0, select bank0
  9202  028F  0828               	movf	?___llmod+3,w
  9203  0290  1683               	bsf	3,5	;RP0=1, select bank1
  9204  0291  1303               	bcf	3,6	;RP1=0, select bank1
  9205  0292  00AB               	movwf	(sprintf@tmpval+3)^(0+128)
  9206  0293  1283               	bcf	3,5	;RP0=0, select bank0
  9207  0294  1303               	bcf	3,6	;RP1=0, select bank0
  9208  0295  0827               	movf	?___llmod+2,w
  9209  0296  1683               	bsf	3,5	;RP0=1, select bank1
  9210  0297  1303               	bcf	3,6	;RP1=0, select bank1
  9211  0298  00AA               	movwf	(sprintf@tmpval+2)^(0+128)
  9212  0299  1283               	bcf	3,5	;RP0=0, select bank0
  9213  029A  1303               	bcf	3,6	;RP1=0, select bank0
  9214  029B  0826               	movf	?___llmod+1,w
  9215  029C  1683               	bsf	3,5	;RP0=1, select bank1
  9216  029D  1303               	bcf	3,6	;RP1=0, select bank1
  9217  029E  00A9               	movwf	(sprintf@tmpval+1)^(0+128)
  9218  029F  1283               	bcf	3,5	;RP0=0, select bank0
  9219  02A0  1303               	bcf	3,6	;RP1=0, select bank0
  9220  02A1  0825               	movf	?___llmod,w
  9221  02A2  1683               	bsf	3,5	;RP0=1, select bank1
  9222  02A3  1303               	bcf	3,6	;RP1=0, select bank1
  9223  02A4  00A8               	movwf	sprintf@tmpval^(0+128)
  9224  02A5                     l3857:
  9225                           
  9226                           ;D:\Microchip\xc8\v2.31\pic\sources\c90\common\doprnt.c: 1229:      ((*sp++ = ('0' + tmp
      +                          val.vd)));
  9227  02A5  0828               	movf	sprintf@tmpval^(0+128),w
  9228  02A6  3E30               	addlw	48
  9229  02A7  1283               	bcf	3,5	;RP0=0, select bank0
  9230  02A8  1303               	bcf	3,6	;RP1=0, select bank0
  9231  02A9  00E7               	movwf	??_sprintf
  9232  02AA  1683               	bsf	3,5	;RP0=1, select bank1
  9233  02AB  1303               	bcf	3,6	;RP1=0, select bank1
  9234  02AC  0835               	movf	sprintf@sp^(0+128),w
  9235  02AD  0084               	movwf	4
  9236  02AE  1283               	bcf	3,5	;RP0=0, select bank0
  9237  02AF  1303               	bcf	3,6	;RP1=0, select bank0
  9238  02B0  0867               	movf	??_sprintf,w
  9239  02B1  1383               	bcf	3,7	;select IRP bank0
  9240  02B2  0080               	movwf	0
  9241  02B3  3001               	movlw	1
  9242  02B4  00E7               	movwf	??_sprintf
  9243  02B5  0867               	movf	??_sprintf,w
  9244  02B6  1683               	bsf	3,5	;RP0=1, select bank1
  9245  02B7  1303               	bcf	3,6	;RP1=0, select bank1
  9246  02B8  07B5               	addwf	sprintf@sp^(0+128),f
  9247  02B9                     l384:	
  9248                           ;D:\Microchip\xc8\v2.31\pic\sources\c90\common\doprnt.c: 1230:     };D:\Microchip\xc8\v2
      +                          .31\pic\sources\c90\common\doprnt.c: 1232:    }
  9249                           
  9250                           
  9251                           ;D:\Microchip\xc8\v2.31\pic\sources\c90\common\doprnt.c: 1222:    while(c--) {
  9252  02B9  3001               	movlw	1
  9253  02BA  1683               	bsf	3,5	;RP0=1, select bank1
  9254  02BB  1303               	bcf	3,6	;RP1=0, select bank1
  9255  02BC  02B8               	subwf	sprintf@c^(0+128),f
  9256  02BD  0A38               	incf	sprintf@c^(0+128),w
  9257  02BE  1D03               	btfss	3,2
  9258  02BF  2AC1               	goto	u5551
  9259  02C0  2AC2               	goto	u5550
  9260  02C1                     u5551:
  9261  02C1  2A27               	goto	l3853
  9262  02C2                     u5550:
  9263  02C2  2ADC               	goto	l3865
  9264  02C3                     l3859:
  9265                           
  9266                           ;D:\Microchip\xc8\v2.31\pic\sources\c90\common\doprnt.c: 1234:     ((*sp++ = ('0')));
  9267  02C3  3030               	movlw	48
  9268  02C4  1283               	bcf	3,5	;RP0=0, select bank0
  9269  02C5  1303               	bcf	3,6	;RP1=0, select bank0
  9270  02C6  00E7               	movwf	??_sprintf
  9271  02C7  1683               	bsf	3,5	;RP0=1, select bank1
  9272  02C8  1303               	bcf	3,6	;RP1=0, select bank1
  9273  02C9  0835               	movf	sprintf@sp^(0+128),w
  9274  02CA  0084               	movwf	4
  9275  02CB  1283               	bcf	3,5	;RP0=0, select bank0
  9276  02CC  1303               	bcf	3,6	;RP1=0, select bank0
  9277  02CD  0867               	movf	??_sprintf,w
  9278  02CE  1383               	bcf	3,7	;select IRP bank0
  9279  02CF  0080               	movwf	0
  9280  02D0                     l3861:
  9281  02D0  3001               	movlw	1
  9282  02D1  00E7               	movwf	??_sprintf
  9283  02D2  0867               	movf	??_sprintf,w
  9284  02D3  1683               	bsf	3,5	;RP0=1, select bank1
  9285  02D4  1303               	bcf	3,6	;RP1=0, select bank1
  9286  02D5  07B5               	addwf	sprintf@sp^(0+128),f
  9287  02D6                     l3863:
  9288                           
  9289                           ;D:\Microchip\xc8\v2.31\pic\sources\c90\common\doprnt.c: 1235:     eexp--;
  9290  02D6  30FF               	movlw	255
  9291  02D7  07B0               	addwf	sprintf@eexp^(0+128),f
  9292  02D8  1803               	skipnc
  9293  02D9  0AB1               	incf	(sprintf@eexp+1)^(0+128),f
  9294  02DA  30FF               	movlw	255
  9295  02DB  07B1               	addwf	(sprintf@eexp+1)^(0+128),f
  9296  02DC                     l3865:
  9297                           
  9298                           ;D:\Microchip\xc8\v2.31\pic\sources\c90\common\doprnt.c: 1233:    while(eexp > 0) {
  9299  02DC  0831               	movf	(sprintf@eexp+1)^(0+128),w
  9300  02DD  3A80               	xorlw	128
  9301  02DE  00FF               	movwf	btemp+1
  9302  02DF  3080               	movlw	128
  9303  02E0  027F               	subwf	btemp+1,w
  9304  02E1  1D03               	skipz
  9305  02E2  2AE5               	goto	u5565
  9306  02E3  3001               	movlw	1
  9307  02E4  0230               	subwf	sprintf@eexp^(0+128),w
  9308  02E5                     u5565:
  9309  02E5  1803               	skipnc
  9310  02E6  2AE8               	goto	u5561
  9311  02E7  2AE9               	goto	u5560
  9312  02E8                     u5561:
  9313  02E8  2AC3               	goto	l3859
  9314  02E9                     u5560:
  9315  02E9                     l3867:
  9316                           
  9317                           ;D:\Microchip\xc8\v2.31\pic\sources\c90\common\doprnt.c: 1237:    if(prec > (int)((sizeo
      +                          f dpowers/sizeof dpowers[0])-2))
  9318  02E9  1683               	bsf	3,5	;RP0=1, select bank1
  9319  02EA  1303               	bcf	3,6	;RP1=0, select bank1
  9320  02EB  0837               	movf	(sprintf@prec+1)^(0+128),w
  9321  02EC  3A80               	xorlw	128
  9322  02ED  00FF               	movwf	btemp+1
  9323  02EE  3080               	movlw	128
  9324  02EF  027F               	subwf	btemp+1,w
  9325  02F0  1D03               	skipz
  9326  02F1  2AF4               	goto	u5575
  9327  02F2  3009               	movlw	9
  9328  02F3  0236               	subwf	sprintf@prec^(0+128),w
  9329  02F4                     u5575:
  9330  02F4  1C03               	skipc
  9331  02F5  2AF7               	goto	u5571
  9332  02F6  2AF8               	goto	u5570
  9333  02F7                     u5571:
  9334  02F7  2B01               	goto	l3871
  9335  02F8                     u5570:
  9336  02F8                     l3869:
  9337                           
  9338                           ;D:\Microchip\xc8\v2.31\pic\sources\c90\common\doprnt.c: 1238:     c = (sizeof dpowers/s
      +                          izeof dpowers[0])-2;
  9339  02F8  3008               	movlw	8
  9340  02F9  1283               	bcf	3,5	;RP0=0, select bank0
  9341  02FA  1303               	bcf	3,6	;RP1=0, select bank0
  9342  02FB  00E7               	movwf	??_sprintf
  9343  02FC  0867               	movf	??_sprintf,w
  9344  02FD  1683               	bsf	3,5	;RP0=1, select bank1
  9345  02FE  1303               	bcf	3,6	;RP1=0, select bank1
  9346  02FF  00B8               	movwf	sprintf@c^(0+128)
  9347  0300  2B0B               	goto	l391
  9348  0301                     l3871:
  9349                           
  9350                           ;D:\Microchip\xc8\v2.31\pic\sources\c90\common\doprnt.c: 1240:     c = (char)prec;
  9351  0301  1683               	bsf	3,5	;RP0=1, select bank1
  9352  0302  1303               	bcf	3,6	;RP1=0, select bank1
  9353  0303  0836               	movf	sprintf@prec^(0+128),w
  9354  0304  1283               	bcf	3,5	;RP0=0, select bank0
  9355  0305  1303               	bcf	3,6	;RP1=0, select bank0
  9356  0306  00E7               	movwf	??_sprintf
  9357  0307  0867               	movf	??_sprintf,w
  9358  0308  1683               	bsf	3,5	;RP0=1, select bank1
  9359  0309  1303               	bcf	3,6	;RP1=0, select bank1
  9360  030A  00B8               	movwf	sprintf@c^(0+128)
  9361  030B                     l391:
  9362                           
  9363                           ;D:\Microchip\xc8\v2.31\pic\sources\c90\common\doprnt.c: 1241:    prec -= (int)c;
  9364  030B  0838               	movf	sprintf@c^(0+128),w
  9365  030C  1283               	bcf	3,5	;RP0=0, select bank0
  9366  030D  1303               	bcf	3,6	;RP1=0, select bank0
  9367  030E  00E7               	movwf	??_sprintf
  9368  030F  01E8               	clrf	??_sprintf+1
  9369  0310  0867               	movf	??_sprintf,w
  9370  0311  1683               	bsf	3,5	;RP0=1, select bank1
  9371  0312  1303               	bcf	3,6	;RP1=0, select bank1
  9372  0313  02B6               	subwf	sprintf@prec^(0+128),f
  9373  0314  1283               	bcf	3,5	;RP0=0, select bank0
  9374  0315  1303               	bcf	3,6	;RP1=0, select bank0
  9375  0316  0868               	movf	??_sprintf+1,w
  9376  0317  1683               	bsf	3,5	;RP0=1, select bank1
  9377  0318  1303               	bcf	3,6	;RP1=0, select bank1
  9378  0319  1C03               	skipc
  9379  031A  03B7               	decf	(sprintf@prec+1)^(0+128),f
  9380  031B  02B7               	subwf	(sprintf@prec+1)^(0+128),f
  9381  031C                     l3873:
  9382                           
  9383                           ;D:\Microchip\xc8\v2.31\pic\sources\c90\common\doprnt.c: 1245:    if(c)
  9384  031C  0838               	movf	sprintf@c^(0+128),w
  9385  031D  1903               	btfsc	3,2
  9386  031E  2B20               	goto	u5581
  9387  031F  2B21               	goto	u5580
  9388  0320                     u5581:
  9389  0320  2B34               	goto	l3879
  9390  0321                     u5580:
  9391  0321                     l3875:
  9392                           
  9393                           ;D:\Microchip\xc8\v2.31\pic\sources\c90\common\doprnt.c: 1247:     ((*sp++ = ('.')));
  9394  0321  302E               	movlw	46
  9395  0322  1283               	bcf	3,5	;RP0=0, select bank0
  9396  0323  1303               	bcf	3,6	;RP1=0, select bank0
  9397  0324  00E7               	movwf	??_sprintf
  9398  0325  1683               	bsf	3,5	;RP0=1, select bank1
  9399  0326  1303               	bcf	3,6	;RP1=0, select bank1
  9400  0327  0835               	movf	sprintf@sp^(0+128),w
  9401  0328  0084               	movwf	4
  9402  0329  1283               	bcf	3,5	;RP0=0, select bank0
  9403  032A  1303               	bcf	3,6	;RP1=0, select bank0
  9404  032B  0867               	movf	??_sprintf,w
  9405  032C  1383               	bcf	3,7	;select IRP bank0
  9406  032D  0080               	movwf	0
  9407  032E                     l3877:
  9408  032E  3001               	movlw	1
  9409  032F  00E7               	movwf	??_sprintf
  9410  0330  0867               	movf	??_sprintf,w
  9411  0331  1683               	bsf	3,5	;RP0=1, select bank1
  9412  0332  1303               	bcf	3,6	;RP1=0, select bank1
  9413  0333  07B5               	addwf	sprintf@sp^(0+128),f
  9414  0334                     l3879:
  9415                           
  9416                           ;D:\Microchip\xc8\v2.31\pic\sources\c90\common\doprnt.c: 1253:    val = (unsigned long)(
      +                          fval * scale((signed char)c));
  9417  0334  0838               	movf	sprintf@c^(0+128),w
  9418  0335  120A  158A  225D  120A  118A  	fcall	_scale
  9419  033A  1283               	bcf	3,5	;RP0=0, select bank0
  9420  033B  1303               	bcf	3,6	;RP1=0, select bank0
  9421  033C  083B               	movf	?_scale,w
  9422  033D  1683               	bsf	3,5	;RP0=1, select bank1
  9423  033E  1303               	bcf	3,6	;RP1=0, select bank1
  9424  033F  00A0               	movwf	_sprintf$1132^(0+128)
  9425  0340  1283               	bcf	3,5	;RP0=0, select bank0
  9426  0341  1303               	bcf	3,6	;RP1=0, select bank0
  9427  0342  083C               	movf	?_scale+1,w
  9428  0343  1683               	bsf	3,5	;RP0=1, select bank1
  9429  0344  1303               	bcf	3,6	;RP1=0, select bank1
  9430  0345  00A1               	movwf	(_sprintf$1132+1)^(0+128)
  9431  0346  1283               	bcf	3,5	;RP0=0, select bank0
  9432  0347  1303               	bcf	3,6	;RP1=0, select bank0
  9433  0348  083D               	movf	?_scale+2,w
  9434  0349  1683               	bsf	3,5	;RP0=1, select bank1
  9435  034A  1303               	bcf	3,6	;RP1=0, select bank1
  9436  034B  00A2               	movwf	(_sprintf$1132+2)^(0+128)
  9437  034C                     l3881:
  9438                           
  9439                           ;D:\Microchip\xc8\v2.31\pic\sources\c90\common\doprnt.c: 1253:    val = (unsigned long)(
      +                          fval * scale((signed char)c));
  9440  034C  0820               	movf	_sprintf$1132^(0+128),w
  9441  034D  1283               	bcf	3,5	;RP0=0, select bank0
  9442  034E  1303               	bcf	3,6	;RP1=0, select bank0
  9443  034F  00AE               	movwf	___ftmul@f2
  9444  0350  1683               	bsf	3,5	;RP0=1, select bank1
  9445  0351  1303               	bcf	3,6	;RP1=0, select bank1
  9446  0352  0821               	movf	(_sprintf$1132+1)^(0+128),w
  9447  0353  1283               	bcf	3,5	;RP0=0, select bank0
  9448  0354  1303               	bcf	3,6	;RP1=0, select bank0
  9449  0355  00AF               	movwf	___ftmul@f2+1
  9450  0356  1683               	bsf	3,5	;RP0=1, select bank1
  9451  0357  1303               	bcf	3,6	;RP1=0, select bank1
  9452  0358  0822               	movf	(_sprintf$1132+2)^(0+128),w
  9453  0359  1283               	bcf	3,5	;RP0=0, select bank0
  9454  035A  1303               	bcf	3,6	;RP1=0, select bank0
  9455  035B  00B0               	movwf	___ftmul@f2+2
  9456  035C  1683               	bsf	3,5	;RP0=1, select bank1
  9457  035D  1303               	bcf	3,6	;RP1=0, select bank1
  9458  035E  0832               	movf	sprintf@fval^(0+128),w
  9459  035F  1283               	bcf	3,5	;RP0=0, select bank0
  9460  0360  1303               	bcf	3,6	;RP1=0, select bank0
  9461  0361  00AB               	movwf	___ftmul@f1
  9462  0362  1683               	bsf	3,5	;RP0=1, select bank1
  9463  0363  1303               	bcf	3,6	;RP1=0, select bank1
  9464  0364  0833               	movf	(sprintf@fval+1)^(0+128),w
  9465  0365  1283               	bcf	3,5	;RP0=0, select bank0
  9466  0366  1303               	bcf	3,6	;RP1=0, select bank0
  9467  0367  00AC               	movwf	___ftmul@f1+1
  9468  0368  1683               	bsf	3,5	;RP0=1, select bank1
  9469  0369  1303               	bcf	3,6	;RP1=0, select bank1
  9470  036A  0834               	movf	(sprintf@fval+2)^(0+128),w
  9471  036B  1283               	bcf	3,5	;RP0=0, select bank0
  9472  036C  1303               	bcf	3,6	;RP1=0, select bank0
  9473  036D  00AD               	movwf	___ftmul@f1+2
  9474  036E  160A  118A  24B9  120A  118A  	fcall	___ftmul
  9475  0373  1283               	bcf	3,5	;RP0=0, select bank0
  9476  0374  1303               	bcf	3,6	;RP1=0, select bank0
  9477  0375  082B               	movf	?___ftmul,w
  9478  0376  00C4               	movwf	___fttol@f1
  9479  0377  082C               	movf	?___ftmul+1,w
  9480  0378  00C5               	movwf	___fttol@f1+1
  9481  0379  082D               	movf	?___ftmul+2,w
  9482  037A  00C6               	movwf	___fttol@f1+2
  9483  037B  160A  118A  2370  120A  118A  	fcall	___fttol
  9484  0380  1283               	bcf	3,5	;RP0=0, select bank0
  9485  0381  1303               	bcf	3,6	;RP1=0, select bank0
  9486  0382  0847               	movf	?___fttol+3,w
  9487  0383  1683               	bsf	3,5	;RP0=1, select bank1
  9488  0384  1303               	bcf	3,6	;RP1=0, select bank1
  9489  0385  00AF               	movwf	(sprintf@val+3)^(0+128)
  9490  0386  1283               	bcf	3,5	;RP0=0, select bank0
  9491  0387  1303               	bcf	3,6	;RP1=0, select bank0
  9492  0388  0846               	movf	?___fttol+2,w
  9493  0389  1683               	bsf	3,5	;RP0=1, select bank1
  9494  038A  1303               	bcf	3,6	;RP1=0, select bank1
  9495  038B  00AE               	movwf	(sprintf@val+2)^(0+128)
  9496  038C  1283               	bcf	3,5	;RP0=0, select bank0
  9497  038D  1303               	bcf	3,6	;RP1=0, select bank0
  9498  038E  0845               	movf	?___fttol+1,w
  9499  038F  1683               	bsf	3,5	;RP0=1, select bank1
  9500  0390  1303               	bcf	3,6	;RP1=0, select bank1
  9501  0391  00AD               	movwf	(sprintf@val+1)^(0+128)
  9502  0392  1283               	bcf	3,5	;RP0=0, select bank0
  9503  0393  1303               	bcf	3,6	;RP1=0, select bank0
  9504  0394  0844               	movf	?___fttol,w
  9505  0395  1683               	bsf	3,5	;RP0=1, select bank1
  9506  0396  1303               	bcf	3,6	;RP1=0, select bank1
  9507  0397  00AC               	movwf	sprintf@val^(0+128)
  9508                           
  9509                           ;D:\Microchip\xc8\v2.31\pic\sources\c90\common\doprnt.c: 1254:    while(c--) {
  9510  0398  2C86               	goto	l3891
  9511  0399                     l3883:
  9512                           
  9513                           ;D:\Microchip\xc8\v2.31\pic\sources\c90\common\doprnt.c: 1255:     tmpval.vd = val/dpowe
      +                          rs[c];
  9514  0399  0838               	movf	sprintf@c^(0+128),w
  9515  039A  1283               	bcf	3,5	;RP0=0, select bank0
  9516  039B  1303               	bcf	3,6	;RP1=0, select bank0
  9517  039C  00E7               	movwf	??_sprintf
  9518  039D  3001               	movlw	1
  9519  039E                     u5595:
  9520  039E  1003               	clrc
  9521  039F  0DE7               	rlf	??_sprintf,f
  9522  03A0  3EFF               	addlw	-1
  9523  03A1  1D03               	skipz
  9524  03A2  2B9E               	goto	u5595
  9525  03A3  1003               	clrc
  9526  03A4  0D67               	rlf	??_sprintf,w
  9527  03A5  3E4F               	addlw	low ((_dpowers-__stringbase)| (0+32768))
  9528  03A6  0084               	movwf	4
  9529  03A7  160A  118A  200A  120A  118A  	fcall	stringdir
  9530  03AC  00F2               	movwf	___lldiv@divisor
  9531  03AD  160A  118A  200A  120A  118A  	fcall	stringdir
  9532  03B2  00F3               	movwf	___lldiv@divisor+1
  9533  03B3  160A  118A  200A  120A  118A  	fcall	stringdir
  9534  03B8  00F4               	movwf	___lldiv@divisor+2
  9535  03B9  160A  118A  200A  120A  118A  	fcall	stringdir
  9536  03BE  00F5               	movwf	___lldiv@divisor+3
  9537  03BF  1683               	bsf	3,5	;RP0=1, select bank1
  9538  03C0  1303               	bcf	3,6	;RP1=0, select bank1
  9539  03C1  082F               	movf	(sprintf@val+3)^(0+128),w
  9540  03C2  00F9               	movwf	___lldiv@dividend+3
  9541  03C3  082E               	movf	(sprintf@val+2)^(0+128),w
  9542  03C4  00F8               	movwf	___lldiv@dividend+2
  9543  03C5  082D               	movf	(sprintf@val+1)^(0+128),w
  9544  03C6  00F7               	movwf	___lldiv@dividend+1
  9545  03C7  082C               	movf	sprintf@val^(0+128),w
  9546  03C8  00F6               	movwf	___lldiv@dividend
  9547  03C9  160A  118A  2223  120A  118A  	fcall	___lldiv
  9548  03CE  0875               	movf	?___lldiv+3,w
  9549  03CF  1683               	bsf	3,5	;RP0=1, select bank1
  9550  03D0  1303               	bcf	3,6	;RP1=0, select bank1
  9551  03D1  00AB               	movwf	(sprintf@tmpval+3)^(0+128)
  9552  03D2  0874               	movf	?___lldiv+2,w
  9553  03D3  00AA               	movwf	(sprintf@tmpval+2)^(0+128)
  9554  03D4  0873               	movf	?___lldiv+1,w
  9555  03D5  00A9               	movwf	(sprintf@tmpval+1)^(0+128)
  9556  03D6  0872               	movf	?___lldiv,w
  9557  03D7  00A8               	movwf	sprintf@tmpval^(0+128)
  9558  03D8                     l3885:
  9559                           
  9560                           ;D:\Microchip\xc8\v2.31\pic\sources\c90\common\doprnt.c: 1256:     tmpval.vd %= 10;
  9561  03D8  3000               	movlw	0
  9562  03D9  1283               	bcf	3,5	;RP0=0, select bank0
  9563  03DA  1303               	bcf	3,6	;RP1=0, select bank0
  9564  03DB  00A8               	movwf	___llmod@divisor+3
  9565  03DC  3000               	movlw	0
  9566  03DD  00A7               	movwf	___llmod@divisor+2
  9567  03DE  3000               	movlw	0
  9568  03DF  00A6               	movwf	___llmod@divisor+1
  9569  03E0  300A               	movlw	10
  9570  03E1  00A5               	movwf	___llmod@divisor
  9571  03E2  1683               	bsf	3,5	;RP0=1, select bank1
  9572  03E3  1303               	bcf	3,6	;RP1=0, select bank1
  9573  03E4  082B               	movf	(sprintf@tmpval+3)^(0+128),w
  9574  03E5  1283               	bcf	3,5	;RP0=0, select bank0
  9575  03E6  1303               	bcf	3,6	;RP1=0, select bank0
  9576  03E7  00AC               	movwf	___llmod@dividend+3
  9577  03E8  1683               	bsf	3,5	;RP0=1, select bank1
  9578  03E9  1303               	bcf	3,6	;RP1=0, select bank1
  9579  03EA  082A               	movf	(sprintf@tmpval+2)^(0+128),w
  9580  03EB  1283               	bcf	3,5	;RP0=0, select bank0
  9581  03EC  1303               	bcf	3,6	;RP1=0, select bank0
  9582  03ED  00AB               	movwf	___llmod@dividend+2
  9583  03EE  1683               	bsf	3,5	;RP0=1, select bank1
  9584  03EF  1303               	bcf	3,6	;RP1=0, select bank1
  9585  03F0  0829               	movf	(sprintf@tmpval+1)^(0+128),w
  9586  03F1  1283               	bcf	3,5	;RP0=0, select bank0
  9587  03F2  1303               	bcf	3,6	;RP1=0, select bank0
  9588  03F3  00AA               	movwf	___llmod@dividend+1
  9589  03F4  1683               	bsf	3,5	;RP0=1, select bank1
  9590  03F5  1303               	bcf	3,6	;RP1=0, select bank1
  9591  03F6  0828               	movf	sprintf@tmpval^(0+128),w
  9592  03F7  1283               	bcf	3,5	;RP0=0, select bank0
  9593  03F8  1303               	bcf	3,6	;RP1=0, select bank0
  9594  03F9  00A9               	movwf	___llmod@dividend
  9595  03FA  160A  118A  2174  120A  118A  	fcall	___llmod
  9596  03FF  1283               	bcf	3,5	;RP0=0, select bank0
  9597  0400  1303               	bcf	3,6	;RP1=0, select bank0
  9598  0401  0828               	movf	?___llmod+3,w
  9599  0402  1683               	bsf	3,5	;RP0=1, select bank1
  9600  0403  1303               	bcf	3,6	;RP1=0, select bank1
  9601  0404  00AB               	movwf	(sprintf@tmpval+3)^(0+128)
  9602  0405  1283               	bcf	3,5	;RP0=0, select bank0
  9603  0406  1303               	bcf	3,6	;RP1=0, select bank0
  9604  0407  0827               	movf	?___llmod+2,w
  9605  0408  1683               	bsf	3,5	;RP0=1, select bank1
  9606  0409  1303               	bcf	3,6	;RP1=0, select bank1
  9607  040A  00AA               	movwf	(sprintf@tmpval+2)^(0+128)
  9608  040B  1283               	bcf	3,5	;RP0=0, select bank0
  9609  040C  1303               	bcf	3,6	;RP1=0, select bank0
  9610  040D  0826               	movf	?___llmod+1,w
  9611  040E  1683               	bsf	3,5	;RP0=1, select bank1
  9612  040F  1303               	bcf	3,6	;RP1=0, select bank1
  9613  0410  00A9               	movwf	(sprintf@tmpval+1)^(0+128)
  9614  0411  1283               	bcf	3,5	;RP0=0, select bank0
  9615  0412  1303               	bcf	3,6	;RP1=0, select bank0
  9616  0413  0825               	movf	?___llmod,w
  9617  0414  1683               	bsf	3,5	;RP0=1, select bank1
  9618  0415  1303               	bcf	3,6	;RP1=0, select bank1
  9619  0416  00A8               	movwf	sprintf@tmpval^(0+128)
  9620  0417                     l3887:
  9621                           
  9622                           ;D:\Microchip\xc8\v2.31\pic\sources\c90\common\doprnt.c: 1257:     ((*sp++ = ('0' + tmpv
      +                          al.vd)));
  9623  0417  0828               	movf	sprintf@tmpval^(0+128),w
  9624  0418  3E30               	addlw	48
  9625  0419  1283               	bcf	3,5	;RP0=0, select bank0
  9626  041A  1303               	bcf	3,6	;RP1=0, select bank0
  9627  041B  00E7               	movwf	??_sprintf
  9628  041C  1683               	bsf	3,5	;RP0=1, select bank1
  9629  041D  1303               	bcf	3,6	;RP1=0, select bank1
  9630  041E  0835               	movf	sprintf@sp^(0+128),w
  9631  041F  0084               	movwf	4
  9632  0420  1283               	bcf	3,5	;RP0=0, select bank0
  9633  0421  1303               	bcf	3,6	;RP1=0, select bank0
  9634  0422  0867               	movf	??_sprintf,w
  9635  0423  1383               	bcf	3,7	;select IRP bank0
  9636  0424  0080               	movwf	0
  9637  0425  3001               	movlw	1
  9638  0426  00E7               	movwf	??_sprintf
  9639  0427  0867               	movf	??_sprintf,w
  9640  0428  1683               	bsf	3,5	;RP0=1, select bank1
  9641  0429  1303               	bcf	3,6	;RP1=0, select bank1
  9642  042A  07B5               	addwf	sprintf@sp^(0+128),f
  9643  042B                     l3889:
  9644                           
  9645                           ;D:\Microchip\xc8\v2.31\pic\sources\c90\common\doprnt.c: 1258:     val %= dpowers[c];
  9646  042B  0838               	movf	sprintf@c^(0+128),w
  9647  042C  1283               	bcf	3,5	;RP0=0, select bank0
  9648  042D  1303               	bcf	3,6	;RP1=0, select bank0
  9649  042E  00E7               	movwf	??_sprintf
  9650  042F  3001               	movlw	1
  9651  0430                     u5605:
  9652  0430  1003               	clrc
  9653  0431  0DE7               	rlf	??_sprintf,f
  9654  0432  3EFF               	addlw	-1
  9655  0433  1D03               	skipz
  9656  0434  2C30               	goto	u5605
  9657  0435  1003               	clrc
  9658  0436  0D67               	rlf	??_sprintf,w
  9659  0437  3E4F               	addlw	low ((_dpowers-__stringbase)| (0+32768))
  9660  0438  0084               	movwf	4
  9661  0439  160A  118A  200A  120A  118A  	fcall	stringdir
  9662  043E  00A5               	movwf	___llmod@divisor
  9663  043F  160A  118A  200A  120A  118A  	fcall	stringdir
  9664  0444  00A6               	movwf	___llmod@divisor+1
  9665  0445  160A  118A  200A  120A  118A  	fcall	stringdir
  9666  044A  00A7               	movwf	___llmod@divisor+2
  9667  044B  160A  118A  200A  120A  118A  	fcall	stringdir
  9668  0450  00A8               	movwf	___llmod@divisor+3
  9669  0451  1683               	bsf	3,5	;RP0=1, select bank1
  9670  0452  1303               	bcf	3,6	;RP1=0, select bank1
  9671  0453  082F               	movf	(sprintf@val+3)^(0+128),w
  9672  0454  1283               	bcf	3,5	;RP0=0, select bank0
  9673  0455  1303               	bcf	3,6	;RP1=0, select bank0
  9674  0456  00AC               	movwf	___llmod@dividend+3
  9675  0457  1683               	bsf	3,5	;RP0=1, select bank1
  9676  0458  1303               	bcf	3,6	;RP1=0, select bank1
  9677  0459  082E               	movf	(sprintf@val+2)^(0+128),w
  9678  045A  1283               	bcf	3,5	;RP0=0, select bank0
  9679  045B  1303               	bcf	3,6	;RP1=0, select bank0
  9680  045C  00AB               	movwf	___llmod@dividend+2
  9681  045D  1683               	bsf	3,5	;RP0=1, select bank1
  9682  045E  1303               	bcf	3,6	;RP1=0, select bank1
  9683  045F  082D               	movf	(sprintf@val+1)^(0+128),w
  9684  0460  1283               	bcf	3,5	;RP0=0, select bank0
  9685  0461  1303               	bcf	3,6	;RP1=0, select bank0
  9686  0462  00AA               	movwf	___llmod@dividend+1
  9687  0463  1683               	bsf	3,5	;RP0=1, select bank1
  9688  0464  1303               	bcf	3,6	;RP1=0, select bank1
  9689  0465  082C               	movf	sprintf@val^(0+128),w
  9690  0466  1283               	bcf	3,5	;RP0=0, select bank0
  9691  0467  1303               	bcf	3,6	;RP1=0, select bank0
  9692  0468  00A9               	movwf	___llmod@dividend
  9693  0469  160A  118A  2174  120A  118A  	fcall	___llmod
  9694  046E  1283               	bcf	3,5	;RP0=0, select bank0
  9695  046F  1303               	bcf	3,6	;RP1=0, select bank0
  9696  0470  0828               	movf	?___llmod+3,w
  9697  0471  1683               	bsf	3,5	;RP0=1, select bank1
  9698  0472  1303               	bcf	3,6	;RP1=0, select bank1
  9699  0473  00AF               	movwf	(sprintf@val+3)^(0+128)
  9700  0474  1283               	bcf	3,5	;RP0=0, select bank0
  9701  0475  1303               	bcf	3,6	;RP1=0, select bank0
  9702  0476  0827               	movf	?___llmod+2,w
  9703  0477  1683               	bsf	3,5	;RP0=1, select bank1
  9704  0478  1303               	bcf	3,6	;RP1=0, select bank1
  9705  0479  00AE               	movwf	(sprintf@val+2)^(0+128)
  9706  047A  1283               	bcf	3,5	;RP0=0, select bank0
  9707  047B  1303               	bcf	3,6	;RP1=0, select bank0
  9708  047C  0826               	movf	?___llmod+1,w
  9709  047D  1683               	bsf	3,5	;RP0=1, select bank1
  9710  047E  1303               	bcf	3,6	;RP1=0, select bank1
  9711  047F  00AD               	movwf	(sprintf@val+1)^(0+128)
  9712  0480  1283               	bcf	3,5	;RP0=0, select bank0
  9713  0481  1303               	bcf	3,6	;RP1=0, select bank0
  9714  0482  0825               	movf	?___llmod,w
  9715  0483  1683               	bsf	3,5	;RP0=1, select bank1
  9716  0484  1303               	bcf	3,6	;RP1=0, select bank1
  9717  0485  00AC               	movwf	sprintf@val^(0+128)
  9718  0486                     l3891:
  9719                           
  9720                           ;D:\Microchip\xc8\v2.31\pic\sources\c90\common\doprnt.c: 1254:    while(c--) {
  9721  0486  3001               	movlw	1
  9722  0487  02B8               	subwf	sprintf@c^(0+128),f
  9723  0488  0A38               	incf	sprintf@c^(0+128),w
  9724  0489  1D03               	btfss	3,2
  9725  048A  2C8C               	goto	u5611
  9726  048B  2C8D               	goto	u5610
  9727  048C                     u5611:
  9728  048C  2B99               	goto	l3883
  9729  048D                     u5610:
  9730  048D  2CA7               	goto	l3899
  9731  048E                     l3893:
  9732                           
  9733                           ;D:\Microchip\xc8\v2.31\pic\sources\c90\common\doprnt.c: 1262:     ((*sp++ = ('0')));
  9734  048E  3030               	movlw	48
  9735  048F  1283               	bcf	3,5	;RP0=0, select bank0
  9736  0490  1303               	bcf	3,6	;RP1=0, select bank0
  9737  0491  00E7               	movwf	??_sprintf
  9738  0492  1683               	bsf	3,5	;RP0=1, select bank1
  9739  0493  1303               	bcf	3,6	;RP1=0, select bank1
  9740  0494  0835               	movf	sprintf@sp^(0+128),w
  9741  0495  0084               	movwf	4
  9742  0496  1283               	bcf	3,5	;RP0=0, select bank0
  9743  0497  1303               	bcf	3,6	;RP1=0, select bank0
  9744  0498  0867               	movf	??_sprintf,w
  9745  0499  1383               	bcf	3,7	;select IRP bank0
  9746  049A  0080               	movwf	0
  9747  049B                     l3895:
  9748  049B  3001               	movlw	1
  9749  049C  00E7               	movwf	??_sprintf
  9750  049D  0867               	movf	??_sprintf,w
  9751  049E  1683               	bsf	3,5	;RP0=1, select bank1
  9752  049F  1303               	bcf	3,6	;RP1=0, select bank1
  9753  04A0  07B5               	addwf	sprintf@sp^(0+128),f
  9754  04A1                     l3897:
  9755                           
  9756                           ;D:\Microchip\xc8\v2.31\pic\sources\c90\common\doprnt.c: 1263:     prec--;
  9757  04A1  30FF               	movlw	255
  9758  04A2  07B6               	addwf	sprintf@prec^(0+128),f
  9759  04A3  1803               	skipnc
  9760  04A4  0AB7               	incf	(sprintf@prec+1)^(0+128),f
  9761  04A5  30FF               	movlw	255
  9762  04A6  07B7               	addwf	(sprintf@prec+1)^(0+128),f
  9763  04A7                     l3899:
  9764                           
  9765                           ;D:\Microchip\xc8\v2.31\pic\sources\c90\common\doprnt.c: 1261:    while(prec) {
  9766  04A7  0836               	movf	sprintf@prec^(0+128),w
  9767  04A8  0437               	iorwf	(sprintf@prec+1)^(0+128),w
  9768  04A9  1D03               	btfss	3,2
  9769  04AA  2CAC               	goto	u5621
  9770  04AB  2CAD               	goto	u5620
  9771  04AC                     u5621:
  9772  04AC  2C8E               	goto	l3893
  9773  04AD                     u5620:
  9774  04AD  2EB7               	goto	l3979
  9775  04AE                     l3901:
  9776                           
  9777                           ;D:\Microchip\xc8\v2.31\pic\sources\c90\common\doprnt.c: 1279:   {;D:\Microchip\xc8\v2.3
      +                          1\pic\sources\c90\common\doprnt.c: 1285:     val = (unsigned long)(*(int *)__va_arg((*(i
      +                          nt **)ap), (int)0));
  9778  04AE  1683               	bsf	3,5	;RP0=1, select bank1
  9779  04AF  1303               	bcf	3,6	;RP1=0, select bank1
  9780  04B0  0823               	movf	sprintf@ap^(0+128),w
  9781  04B1  0084               	movwf	4
  9782  04B2  1383               	bcf	3,7	;select IRP bank0
  9783  04B3  0800               	movf	0,w
  9784  04B4  1283               	bcf	3,5	;RP0=0, select bank0
  9785  04B5  1303               	bcf	3,6	;RP1=0, select bank0
  9786  04B6  00E7               	movwf	??_sprintf
  9787  04B7  0A84               	incf	4,f
  9788  04B8  0800               	movf	0,w
  9789  04B9  00E8               	movwf	??_sprintf+1
  9790  04BA  0867               	movf	??_sprintf,w
  9791  04BB  1683               	bsf	3,5	;RP0=1, select bank1
  9792  04BC  1303               	bcf	3,6	;RP1=0, select bank1
  9793  04BD  00AC               	movwf	sprintf@val^(0+128)
  9794  04BE  1283               	bcf	3,5	;RP0=0, select bank0
  9795  04BF  1303               	bcf	3,6	;RP1=0, select bank0
  9796  04C0  0868               	movf	??_sprintf+1,w
  9797  04C1  1683               	bsf	3,5	;RP0=1, select bank1
  9798  04C2  1303               	bcf	3,6	;RP1=0, select bank1
  9799  04C3  00AD               	movwf	(sprintf@val+1)^(0+128)
  9800  04C4  3000               	movlw	0
  9801  04C5  1BAD               	btfsc	(sprintf@val+1)^(0+128),7
  9802  04C6  30FF               	movlw	255
  9803  04C7  00AE               	movwf	(sprintf@val+2)^(0+128)
  9804  04C8  00AF               	movwf	(sprintf@val+3)^(0+128)
  9805  04C9                     l3903:
  9806  04C9  3002               	movlw	2
  9807  04CA  1283               	bcf	3,5	;RP0=0, select bank0
  9808  04CB  1303               	bcf	3,6	;RP1=0, select bank0
  9809  04CC  00E7               	movwf	??_sprintf
  9810  04CD  0867               	movf	??_sprintf,w
  9811  04CE  1683               	bsf	3,5	;RP0=1, select bank1
  9812  04CF  1303               	bcf	3,6	;RP1=0, select bank1
  9813  04D0  07A3               	addwf	sprintf@ap^(0+128),f
  9814  04D1                     l3905:
  9815                           
  9816                           ;D:\Microchip\xc8\v2.31\pic\sources\c90\common\doprnt.c: 1287:    if((long)val < 0) {
  9817  04D1  1FAF               	btfss	(sprintf@val+3)^(0+128),7
  9818  04D2  2CD4               	goto	u5631
  9819  04D3  2CD5               	goto	u5630
  9820  04D4                     u5631:
  9821  04D4  2CE4               	goto	l3911
  9822  04D5                     u5630:
  9823  04D5                     l3907:
  9824                           
  9825                           ;D:\Microchip\xc8\v2.31\pic\sources\c90\common\doprnt.c: 1288:     flag |= 0x03;
  9826  04D5  3003               	movlw	3
  9827  04D6  04A4               	iorwf	sprintf@flag^(0+128),f
  9828  04D7  3000               	movlw	0
  9829  04D8  04A5               	iorwf	(sprintf@flag+1)^(0+128),f
  9830  04D9                     l3909:
  9831                           
  9832                           ;D:\Microchip\xc8\v2.31\pic\sources\c90\common\doprnt.c: 1289:     val = -val;
  9833  04D9  09AC               	comf	sprintf@val^(0+128),f
  9834  04DA  09AD               	comf	(sprintf@val+1)^(0+128),f
  9835  04DB  09AE               	comf	(sprintf@val+2)^(0+128),f
  9836  04DC  09AF               	comf	(sprintf@val+3)^(0+128),f
  9837  04DD  0AAC               	incf	sprintf@val^(0+128),f
  9838  04DE  1903               	skipnz
  9839  04DF  0AAD               	incf	(sprintf@val+1)^(0+128),f
  9840  04E0  1903               	skipnz
  9841  04E1  0AAE               	incf	(sprintf@val+2)^(0+128),f
  9842  04E2  1903               	skipnz
  9843  04E3  0AAF               	incf	(sprintf@val+3)^(0+128),f
  9844  04E4                     l3911:
  9845                           
  9846                           ;D:\Microchip\xc8\v2.31\pic\sources\c90\common\doprnt.c: 1292:   };D:\Microchip\xc8\v2.3
      +                          1\pic\sources\c90\common\doprnt.c: 1316:   if(prec == 0 && val == 0)
  9847  04E4  0836               	movf	sprintf@prec^(0+128),w
  9848  04E5  0437               	iorwf	(sprintf@prec+1)^(0+128),w
  9849  04E6  1D03               	btfss	3,2
  9850  04E7  2CE9               	goto	u5641
  9851  04E8  2CEA               	goto	u5640
  9852  04E9                     u5641:
  9853  04E9  2CF8               	goto	l3917
  9854  04EA                     u5640:
  9855  04EA                     l3913:
  9856  04EA  082F               	movf	(sprintf@val+3)^(0+128),w
  9857  04EB  042E               	iorwf	(sprintf@val+2)^(0+128),w
  9858  04EC  042D               	iorwf	(sprintf@val+1)^(0+128),w
  9859  04ED  042C               	iorwf	sprintf@val^(0+128),w
  9860  04EE  1D03               	skipz
  9861  04EF  2CF1               	goto	u5651
  9862  04F0  2CF2               	goto	u5650
  9863  04F1                     u5651:
  9864  04F1  2CF8               	goto	l3917
  9865  04F2                     u5650:
  9866  04F2                     l3915:
  9867                           
  9868                           ;D:\Microchip\xc8\v2.31\pic\sources\c90\common\doprnt.c: 1317:    prec++;
  9869  04F2  3001               	movlw	1
  9870  04F3  07B6               	addwf	sprintf@prec^(0+128),f
  9871  04F4  1803               	skipnc
  9872  04F5  0AB7               	incf	(sprintf@prec+1)^(0+128),f
  9873  04F6  3000               	movlw	0
  9874  04F7  07B7               	addwf	(sprintf@prec+1)^(0+128),f
  9875  04F8                     l3917:
  9876                           
  9877                           ;D:\Microchip\xc8\v2.31\pic\sources\c90\common\doprnt.c: 1331:    for(c = 1 ; c != sizeo
      +                          f dpowers/sizeof dpowers[0] ; c++)
  9878  04F8  01B8               	clrf	sprintf@c^(0+128)
  9879  04F9  0AB8               	incf	sprintf@c^(0+128),f
  9880  04FA                     l3923:
  9881                           
  9882                           ;D:\Microchip\xc8\v2.31\pic\sources\c90\common\doprnt.c: 1332:     if(val < dpowers[c])
  9883  04FA  0838               	movf	sprintf@c^(0+128),w
  9884  04FB  1283               	bcf	3,5	;RP0=0, select bank0
  9885  04FC  1303               	bcf	3,6	;RP1=0, select bank0
  9886  04FD  00E7               	movwf	??_sprintf
  9887  04FE  3001               	movlw	1
  9888  04FF                     u5665:
  9889  04FF  1003               	clrc
  9890  0500  0DE7               	rlf	??_sprintf,f
  9891  0501  3EFF               	addlw	-1
  9892  0502  1D03               	skipz
  9893  0503  2CFF               	goto	u5665
  9894  0504  1003               	clrc
  9895  0505  0D67               	rlf	??_sprintf,w
  9896  0506  3E4F               	addlw	low ((_dpowers-__stringbase)| (0+32768))
  9897  0507  0084               	movwf	4
  9898  0508  160A  118A  200A  120A  118A  	fcall	stringdir
  9899  050D  00E8               	movwf	??_sprintf+1
  9900  050E  160A  118A  200A  120A  118A  	fcall	stringdir
  9901  0513  00E9               	movwf	??_sprintf+2
  9902  0514  160A  118A  200A  120A  118A  	fcall	stringdir
  9903  0519  00EA               	movwf	??_sprintf+3
  9904  051A  160A  118A  200A  120A  118A  	fcall	stringdir
  9905  051F  00EB               	movwf	??_sprintf+4
  9906  0520  086B               	movf	??_sprintf+4,w
  9907  0521  1683               	bsf	3,5	;RP0=1, select bank1
  9908  0522  1303               	bcf	3,6	;RP1=0, select bank1
  9909  0523  022F               	subwf	(sprintf@val+3)^(0+128),w
  9910  0524  1D03               	skipz
  9911  0525  2D3C               	goto	u5675
  9912  0526  1283               	bcf	3,5	;RP0=0, select bank0
  9913  0527  1303               	bcf	3,6	;RP1=0, select bank0
  9914  0528  086A               	movf	??_sprintf+3,w
  9915  0529  1683               	bsf	3,5	;RP0=1, select bank1
  9916  052A  1303               	bcf	3,6	;RP1=0, select bank1
  9917  052B  022E               	subwf	(sprintf@val+2)^(0+128),w
  9918  052C  1D03               	skipz
  9919  052D  2D3C               	goto	u5675
  9920  052E  1283               	bcf	3,5	;RP0=0, select bank0
  9921  052F  1303               	bcf	3,6	;RP1=0, select bank0
  9922  0530  0869               	movf	??_sprintf+2,w
  9923  0531  1683               	bsf	3,5	;RP0=1, select bank1
  9924  0532  1303               	bcf	3,6	;RP1=0, select bank1
  9925  0533  022D               	subwf	(sprintf@val+1)^(0+128),w
  9926  0534  1D03               	skipz
  9927  0535  2D3C               	goto	u5675
  9928  0536  1283               	bcf	3,5	;RP0=0, select bank0
  9929  0537  1303               	bcf	3,6	;RP1=0, select bank0
  9930  0538  0868               	movf	??_sprintf+1,w
  9931  0539  1683               	bsf	3,5	;RP0=1, select bank1
  9932  053A  1303               	bcf	3,6	;RP1=0, select bank1
  9933  053B  022C               	subwf	sprintf@val^(0+128),w
  9934  053C                     u5675:
  9935  053C  1803               	skipnc
  9936  053D  2D3F               	goto	u5671
  9937  053E  2D40               	goto	u5670
  9938  053F                     u5671:
  9939  053F  2D41               	goto	l3927
  9940  0540                     u5670:
  9941  0540  2D4F               	goto	l3929
  9942  0541                     l3927:
  9943  0541  3001               	movlw	1
  9944  0542  1283               	bcf	3,5	;RP0=0, select bank0
  9945  0543  1303               	bcf	3,6	;RP1=0, select bank0
  9946  0544  00E7               	movwf	??_sprintf
  9947  0545  0867               	movf	??_sprintf,w
  9948  0546  1683               	bsf	3,5	;RP0=1, select bank1
  9949  0547  1303               	bcf	3,6	;RP1=0, select bank1
  9950  0548  07B8               	addwf	sprintf@c^(0+128),f
  9951  0549  300A               	movlw	10
  9952  054A  0638               	xorwf	sprintf@c^(0+128),w
  9953  054B  1D03               	btfss	3,2
  9954  054C  2D4E               	goto	u5681
  9955  054D  2D4F               	goto	u5680
  9956  054E                     u5681:
  9957  054E  2CFA               	goto	l3923
  9958  054F                     u5680:
  9959  054F                     l3929:
  9960                           
  9961                           ;D:\Microchip\xc8\v2.31\pic\sources\c90\common\doprnt.c: 1365:   if(c < prec)
  9962  054F  0837               	movf	(sprintf@prec+1)^(0+128),w
  9963  0550  3A80               	xorlw	128
  9964  0551  3C80               	sublw	128
  9965  0552  1D03               	skipz
  9966  0553  2D56               	goto	u5695
  9967  0554  0836               	movf	sprintf@prec^(0+128),w
  9968  0555  0238               	subwf	sprintf@c^(0+128),w
  9969  0556                     u5695:
  9970  0556  1803               	skipnc
  9971  0557  2D59               	goto	u5691
  9972  0558  2D5A               	goto	u5690
  9973  0559                     u5691:
  9974  0559  2D65               	goto	l3933
  9975  055A                     u5690:
  9976  055A                     l3931:
  9977                           
  9978                           ;D:\Microchip\xc8\v2.31\pic\sources\c90\common\doprnt.c: 1366:    c = (char)prec;
  9979  055A  1683               	bsf	3,5	;RP0=1, select bank1
  9980  055B  1303               	bcf	3,6	;RP1=0, select bank1
  9981  055C  0836               	movf	sprintf@prec^(0+128),w
  9982  055D  1283               	bcf	3,5	;RP0=0, select bank0
  9983  055E  1303               	bcf	3,6	;RP1=0, select bank0
  9984  055F  00E7               	movwf	??_sprintf
  9985  0560  0867               	movf	??_sprintf,w
  9986  0561  1683               	bsf	3,5	;RP0=1, select bank1
  9987  0562  1303               	bcf	3,6	;RP1=0, select bank1
  9988  0563  00B8               	movwf	sprintf@c^(0+128)
  9989  0564  2D89               	goto	l3937
  9990  0565                     l3933:
  9991  0565  1683               	bsf	3,5	;RP0=1, select bank1
  9992  0566  1303               	bcf	3,6	;RP1=0, select bank1
  9993  0567  0837               	movf	(sprintf@prec+1)^(0+128),w
  9994  0568  3A80               	xorlw	128
  9995  0569  1283               	bcf	3,5	;RP0=0, select bank0
  9996  056A  1303               	bcf	3,6	;RP1=0, select bank0
  9997  056B  00E7               	movwf	??_sprintf
  9998  056C  3080               	movlw	128
  9999  056D  0267               	subwf	??_sprintf,w
 10000  056E  1D03               	skipz
 10001  056F  2D74               	goto	u5705
 10002  0570  1683               	bsf	3,5	;RP0=1, select bank1
 10003  0571  1303               	bcf	3,6	;RP1=0, select bank1
 10004  0572  0838               	movf	sprintf@c^(0+128),w
 10005  0573  0236               	subwf	sprintf@prec^(0+128),w
 10006  0574                     u5705:
 10007  0574  1803               	skipnc
 10008  0575  2D77               	goto	u5701
 10009  0576  2D78               	goto	u5700
 10010  0577                     u5701:
 10011  0577  2D89               	goto	l3937
 10012  0578                     u5700:
 10013  0578                     l3935:
 10014                           
 10015                           ;D:\Microchip\xc8\v2.31\pic\sources\c90\common\doprnt.c: 1368:    prec = c;
 10016  0578  1683               	bsf	3,5	;RP0=1, select bank1
 10017  0579  1303               	bcf	3,6	;RP1=0, select bank1
 10018  057A  0838               	movf	sprintf@c^(0+128),w
 10019  057B  1283               	bcf	3,5	;RP0=0, select bank0
 10020  057C  1303               	bcf	3,6	;RP1=0, select bank0
 10021  057D  00E7               	movwf	??_sprintf
 10022  057E  01E8               	clrf	??_sprintf+1
 10023  057F  0867               	movf	??_sprintf,w
 10024  0580  1683               	bsf	3,5	;RP0=1, select bank1
 10025  0581  1303               	bcf	3,6	;RP1=0, select bank1
 10026  0582  00B6               	movwf	sprintf@prec^(0+128)
 10027  0583  1283               	bcf	3,5	;RP0=0, select bank0
 10028  0584  1303               	bcf	3,6	;RP1=0, select bank0
 10029  0585  0868               	movf	??_sprintf+1,w
 10030  0586  1683               	bsf	3,5	;RP0=1, select bank1
 10031  0587  1303               	bcf	3,6	;RP1=0, select bank1
 10032  0588  00B7               	movwf	(sprintf@prec+1)^(0+128)
 10033  0589                     l3937:
 10034                           
 10035                           ;D:\Microchip\xc8\v2.31\pic\sources\c90\common\doprnt.c: 1371:   if(width && flag & 0x03
      +                          )
 10036  0589  1683               	bsf	3,5	;RP0=1, select bank1
 10037  058A  1303               	bcf	3,6	;RP1=0, select bank1
 10038  058B  0826               	movf	sprintf@width^(0+128),w
 10039  058C  0427               	iorwf	(sprintf@width+1)^(0+128),w
 10040  058D  1903               	btfsc	3,2
 10041  058E  2D90               	goto	u5711
 10042  058F  2D91               	goto	u5710
 10043  0590                     u5711:
 10044  0590  2DAB               	goto	l3943
 10045  0591                     u5710:
 10046  0591                     l3939:
 10047  0591  3003               	movlw	3
 10048  0592  0524               	andwf	sprintf@flag^(0+128),w
 10049  0593  1283               	bcf	3,5	;RP0=0, select bank0
 10050  0594  1303               	bcf	3,6	;RP1=0, select bank0
 10051  0595  00E7               	movwf	??_sprintf
 10052  0596  3000               	movlw	0
 10053  0597  1683               	bsf	3,5	;RP0=1, select bank1
 10054  0598  1303               	bcf	3,6	;RP1=0, select bank1
 10055  0599  0525               	andwf	(sprintf@flag+1)^(0+128),w
 10056  059A  1283               	bcf	3,5	;RP0=0, select bank0
 10057  059B  1303               	bcf	3,6	;RP1=0, select bank0
 10058  059C  00E8               	movwf	??_sprintf+1
 10059  059D  0867               	movf	??_sprintf,w
 10060  059E  0468               	iorwf	??_sprintf+1,w
 10061  059F  1903               	btfsc	3,2
 10062  05A0  2DA2               	goto	u5721
 10063  05A1  2DA3               	goto	u5720
 10064  05A2                     u5721:
 10065  05A2  2DAB               	goto	l3943
 10066  05A3                     u5720:
 10067  05A3                     l3941:
 10068                           
 10069                           ;D:\Microchip\xc8\v2.31\pic\sources\c90\common\doprnt.c: 1372:    width--;
 10070  05A3  30FF               	movlw	255
 10071  05A4  1683               	bsf	3,5	;RP0=1, select bank1
 10072  05A5  1303               	bcf	3,6	;RP1=0, select bank1
 10073  05A6  07A6               	addwf	sprintf@width^(0+128),f
 10074  05A7  1803               	skipnc
 10075  05A8  0AA7               	incf	(sprintf@width+1)^(0+128),f
 10076  05A9  30FF               	movlw	255
 10077  05AA  07A7               	addwf	(sprintf@width+1)^(0+128),f
 10078  05AB                     l3943:
 10079                           
 10080                           ;D:\Microchip\xc8\v2.31\pic\sources\c90\common\doprnt.c: 1374:   if(flag & 0x4000) {
 10081  05AB  1683               	bsf	3,5	;RP0=1, select bank1
 10082  05AC  1303               	bcf	3,6	;RP1=0, select bank1
 10083  05AD  1F25               	btfss	(sprintf@flag+1)^(0+128),6
 10084  05AE  2DB0               	goto	u5731
 10085  05AF  2DB1               	goto	u5730
 10086  05B0                     u5731:
 10087  05B0  2DD4               	goto	l3951
 10088  05B1                     u5730:
 10089  05B1                     l3945:
 10090                           
 10091                           ;D:\Microchip\xc8\v2.31\pic\sources\c90\common\doprnt.c: 1375:    if(width > prec)
 10092  05B1  0837               	movf	(sprintf@prec+1)^(0+128),w
 10093  05B2  3A80               	xorlw	128
 10094  05B3  1283               	bcf	3,5	;RP0=0, select bank0
 10095  05B4  1303               	bcf	3,6	;RP1=0, select bank0
 10096  05B5  00E7               	movwf	??_sprintf
 10097  05B6  1683               	bsf	3,5	;RP0=1, select bank1
 10098  05B7  1303               	bcf	3,6	;RP1=0, select bank1
 10099  05B8  0827               	movf	(sprintf@width+1)^(0+128),w
 10100  05B9  3A80               	xorlw	128
 10101  05BA  1283               	bcf	3,5	;RP0=0, select bank0
 10102  05BB  1303               	bcf	3,6	;RP1=0, select bank0
 10103  05BC  0267               	subwf	??_sprintf,w
 10104  05BD  1D03               	skipz
 10105  05BE  2DC3               	goto	u5745
 10106  05BF  1683               	bsf	3,5	;RP0=1, select bank1
 10107  05C0  1303               	bcf	3,6	;RP1=0, select bank1
 10108  05C1  0826               	movf	sprintf@width^(0+128),w
 10109  05C2  0236               	subwf	sprintf@prec^(0+128),w
 10110  05C3                     u5745:
 10111  05C3  1803               	skipnc
 10112  05C4  2DC6               	goto	u5741
 10113  05C5  2DC7               	goto	u5740
 10114  05C6                     u5741:
 10115  05C6  2DD0               	goto	l3949
 10116  05C7                     u5740:
 10117  05C7                     l3947:
 10118                           
 10119                           ;D:\Microchip\xc8\v2.31\pic\sources\c90\common\doprnt.c: 1376:     width -= prec;
 10120  05C7  1683               	bsf	3,5	;RP0=1, select bank1
 10121  05C8  1303               	bcf	3,6	;RP1=0, select bank1
 10122  05C9  0836               	movf	sprintf@prec^(0+128),w
 10123  05CA  02A6               	subwf	sprintf@width^(0+128),f
 10124  05CB  0837               	movf	(sprintf@prec+1)^(0+128),w
 10125  05CC  1C03               	skipc
 10126  05CD  03A7               	decf	(sprintf@width+1)^(0+128),f
 10127  05CE  02A7               	subwf	(sprintf@width+1)^(0+128),f
 10128  05CF  2DD4               	goto	l3951
 10129  05D0                     l3949:
 10130                           
 10131                           ;D:\Microchip\xc8\v2.31\pic\sources\c90\common\doprnt.c: 1378:     width = 0;
 10132  05D0  1683               	bsf	3,5	;RP0=1, select bank1
 10133  05D1  1303               	bcf	3,6	;RP1=0, select bank1
 10134  05D2  01A6               	clrf	sprintf@width^(0+128)
 10135  05D3  01A7               	clrf	(sprintf@width+1)^(0+128)
 10136  05D4                     l3951:
 10137                           
 10138                           ;D:\Microchip\xc8\v2.31\pic\sources\c90\common\doprnt.c: 1407:   if(width > c)
 10139  05D4  0827               	movf	(sprintf@width+1)^(0+128),w
 10140  05D5  3A80               	xorlw	128
 10141  05D6  3C80               	sublw	128
 10142  05D7  1D03               	skipz
 10143  05D8  2DDB               	goto	u5755
 10144  05D9  0826               	movf	sprintf@width^(0+128),w
 10145  05DA  0238               	subwf	sprintf@c^(0+128),w
 10146  05DB                     u5755:
 10147  05DB  1803               	skipnc
 10148  05DC  2DDE               	goto	u5751
 10149  05DD  2DDF               	goto	u5750
 10150  05DE                     u5751:
 10151  05DE  2DF3               	goto	l3955
 10152  05DF                     u5750:
 10153  05DF                     l3953:
 10154                           
 10155                           ;D:\Microchip\xc8\v2.31\pic\sources\c90\common\doprnt.c: 1408:    width -= c;
 10156  05DF  1683               	bsf	3,5	;RP0=1, select bank1
 10157  05E0  1303               	bcf	3,6	;RP1=0, select bank1
 10158  05E1  0838               	movf	sprintf@c^(0+128),w
 10159  05E2  1283               	bcf	3,5	;RP0=0, select bank0
 10160  05E3  1303               	bcf	3,6	;RP1=0, select bank0
 10161  05E4  00E7               	movwf	??_sprintf
 10162  05E5  01E8               	clrf	??_sprintf+1
 10163  05E6  0867               	movf	??_sprintf,w
 10164  05E7  1683               	bsf	3,5	;RP0=1, select bank1
 10165  05E8  1303               	bcf	3,6	;RP1=0, select bank1
 10166  05E9  02A6               	subwf	sprintf@width^(0+128),f
 10167  05EA  1283               	bcf	3,5	;RP0=0, select bank0
 10168  05EB  1303               	bcf	3,6	;RP1=0, select bank0
 10169  05EC  0868               	movf	??_sprintf+1,w
 10170  05ED  1683               	bsf	3,5	;RP0=1, select bank1
 10171  05EE  1303               	bcf	3,6	;RP1=0, select bank1
 10172  05EF  1C03               	skipc
 10173  05F0  03A7               	decf	(sprintf@width+1)^(0+128),f
 10174  05F1  02A7               	subwf	(sprintf@width+1)^(0+128),f
 10175  05F2  2DF7               	goto	l3957
 10176  05F3                     l3955:
 10177                           
 10178                           ;D:\Microchip\xc8\v2.31\pic\sources\c90\common\doprnt.c: 1410:    width = 0;
 10179  05F3  1683               	bsf	3,5	;RP0=1, select bank1
 10180  05F4  1303               	bcf	3,6	;RP1=0, select bank1
 10181  05F5  01A6               	clrf	sprintf@width^(0+128)
 10182  05F6  01A7               	clrf	(sprintf@width+1)^(0+128)
 10183  05F7                     l3957:
 10184                           
 10185                           ;D:\Microchip\xc8\v2.31\pic\sources\c90\common\doprnt.c: 1448:   {;D:\Microchip\xc8\v2.3
      +                          1\pic\sources\c90\common\doprnt.c: 1450:    if(width
 10186  05F7  0826               	movf	sprintf@width^(0+128),w
 10187  05F8  0427               	iorwf	(sprintf@width+1)^(0+128),w
 10188  05F9  1903               	btfsc	3,2
 10189  05FA  2DFC               	goto	u5761
 10190  05FB  2DFD               	goto	u5760
 10191  05FC                     u5761:
 10192  05FC  2E1C               	goto	l3965
 10193  05FD                     u5760:
 10194  05FD                     l3959:
 10195                           
 10196                           ;D:\Microchip\xc8\v2.31\pic\sources\c90\common\doprnt.c: 1456:      ((*sp++ = (' ')));
 10197  05FD  3020               	movlw	32
 10198  05FE  1283               	bcf	3,5	;RP0=0, select bank0
 10199  05FF  1303               	bcf	3,6	;RP1=0, select bank0
 10200  0600  00E7               	movwf	??_sprintf
 10201  0601  1683               	bsf	3,5	;RP0=1, select bank1
 10202  0602  1303               	bcf	3,6	;RP1=0, select bank1
 10203  0603  0835               	movf	sprintf@sp^(0+128),w
 10204  0604  0084               	movwf	4
 10205  0605  1283               	bcf	3,5	;RP0=0, select bank0
 10206  0606  1303               	bcf	3,6	;RP1=0, select bank0
 10207  0607  0867               	movf	??_sprintf,w
 10208  0608  1383               	bcf	3,7	;select IRP bank0
 10209  0609  0080               	movwf	0
 10210  060A                     l3961:
 10211  060A  3001               	movlw	1
 10212  060B  00E7               	movwf	??_sprintf
 10213  060C  0867               	movf	??_sprintf,w
 10214  060D  1683               	bsf	3,5	;RP0=1, select bank1
 10215  060E  1303               	bcf	3,6	;RP1=0, select bank1
 10216  060F  07B5               	addwf	sprintf@sp^(0+128),f
 10217  0610                     l3963:
 10218  0610  30FF               	movlw	255
 10219  0611  07A6               	addwf	sprintf@width^(0+128),f
 10220  0612  1803               	skipnc
 10221  0613  0AA7               	incf	(sprintf@width+1)^(0+128),f
 10222  0614  30FF               	movlw	255
 10223  0615  07A7               	addwf	(sprintf@width+1)^(0+128),f
 10224  0616  0826               	movf	sprintf@width^(0+128),w
 10225  0617  0427               	iorwf	(sprintf@width+1)^(0+128),w
 10226  0618  1D03               	btfss	3,2
 10227  0619  2E1B               	goto	u5771
 10228  061A  2E1C               	goto	u5770
 10229  061B                     u5771:
 10230  061B  2DFD               	goto	l3959
 10231  061C                     u5770:
 10232  061C                     l3965:
 10233                           
 10234                           ;D:\Microchip\xc8\v2.31\pic\sources\c90\common\doprnt.c: 1464:    if(flag & 0x03)
 10235  061C  3003               	movlw	3
 10236  061D  0524               	andwf	sprintf@flag^(0+128),w
 10237  061E  1283               	bcf	3,5	;RP0=0, select bank0
 10238  061F  1303               	bcf	3,6	;RP1=0, select bank0
 10239  0620  00E7               	movwf	??_sprintf
 10240  0621  3000               	movlw	0
 10241  0622  1683               	bsf	3,5	;RP0=1, select bank1
 10242  0623  1303               	bcf	3,6	;RP1=0, select bank1
 10243  0624  0525               	andwf	(sprintf@flag+1)^(0+128),w
 10244  0625  1283               	bcf	3,5	;RP0=0, select bank0
 10245  0626  1303               	bcf	3,6	;RP1=0, select bank0
 10246  0627  00E8               	movwf	??_sprintf+1
 10247  0628  0867               	movf	??_sprintf,w
 10248  0629  0468               	iorwf	??_sprintf+1,w
 10249  062A  1903               	btfsc	3,2
 10250  062B  2E2D               	goto	u5781
 10251  062C  2E2E               	goto	u5780
 10252  062D                     u5781:
 10253  062D  2EA7               	goto	l3977
 10254  062E                     u5780:
 10255  062E                     l3967:
 10256                           
 10257                           ;D:\Microchip\xc8\v2.31\pic\sources\c90\common\doprnt.c: 1465:     ((*sp++ = ('-')));
 10258  062E  302D               	movlw	45
 10259  062F  00E7               	movwf	??_sprintf
 10260  0630  1683               	bsf	3,5	;RP0=1, select bank1
 10261  0631  1303               	bcf	3,6	;RP1=0, select bank1
 10262  0632  0835               	movf	sprintf@sp^(0+128),w
 10263  0633  0084               	movwf	4
 10264  0634  1283               	bcf	3,5	;RP0=0, select bank0
 10265  0635  1303               	bcf	3,6	;RP1=0, select bank0
 10266  0636  0867               	movf	??_sprintf,w
 10267  0637  1383               	bcf	3,7	;select IRP bank0
 10268  0638  0080               	movwf	0
 10269  0639                     l3969:
 10270  0639  3001               	movlw	1
 10271  063A  00E7               	movwf	??_sprintf
 10272  063B  0867               	movf	??_sprintf,w
 10273  063C  1683               	bsf	3,5	;RP0=1, select bank1
 10274  063D  1303               	bcf	3,6	;RP1=0, select bank1
 10275  063E  07B5               	addwf	sprintf@sp^(0+128),f
 10276  063F  2EA7               	goto	l3977
 10277  0640                     l3971:
 10278                           
 10279                           ;D:\Microchip\xc8\v2.31\pic\sources\c90\common\doprnt.c: 1504:    {;D:\Microchip\xc8\v2.
      +                          31\pic\sources\c90\common\doprnt.c: 1515:     c = (val / dpowers[(unsigned int)prec]) % 
      +                          10 + '0';
 10280  0640  3000               	movlw	0
 10281  0641  1283               	bcf	3,5	;RP0=0, select bank0
 10282  0642  1303               	bcf	3,6	;RP1=0, select bank0
 10283  0643  00A8               	movwf	___llmod@divisor+3
 10284  0644  3000               	movlw	0
 10285  0645  00A7               	movwf	___llmod@divisor+2
 10286  0646  3000               	movlw	0
 10287  0647  00A6               	movwf	___llmod@divisor+1
 10288  0648  300A               	movlw	10
 10289  0649  00A5               	movwf	___llmod@divisor
 10290  064A  1683               	bsf	3,5	;RP0=1, select bank1
 10291  064B  1303               	bcf	3,6	;RP1=0, select bank1
 10292  064C  0836               	movf	sprintf@prec^(0+128),w
 10293  064D  1283               	bcf	3,5	;RP0=0, select bank0
 10294  064E  1303               	bcf	3,6	;RP1=0, select bank0
 10295  064F  00E7               	movwf	??_sprintf
 10296  0650  3001               	movlw	1
 10297  0651                     u5795:
 10298  0651  1003               	clrc
 10299  0652  0DE7               	rlf	??_sprintf,f
 10300  0653  3EFF               	addlw	-1
 10301  0654  1D03               	skipz
 10302  0655  2E51               	goto	u5795
 10303  0656  1003               	clrc
 10304  0657  0D67               	rlf	??_sprintf,w
 10305  0658  3E4F               	addlw	low ((_dpowers-__stringbase)| (0+32768))
 10306  0659  0084               	movwf	4
 10307  065A  160A  118A  200A  120A  118A  	fcall	stringdir
 10308  065F  00F2               	movwf	___lldiv@divisor
 10309  0660  160A  118A  200A  120A  118A  	fcall	stringdir
 10310  0665  00F3               	movwf	___lldiv@divisor+1
 10311  0666  160A  118A  200A  120A  118A  	fcall	stringdir
 10312  066B  00F4               	movwf	___lldiv@divisor+2
 10313  066C  160A  118A  200A  120A  118A  	fcall	stringdir
 10314  0671  00F5               	movwf	___lldiv@divisor+3
 10315  0672  1683               	bsf	3,5	;RP0=1, select bank1
 10316  0673  1303               	bcf	3,6	;RP1=0, select bank1
 10317  0674  082F               	movf	(sprintf@val+3)^(0+128),w
 10318  0675  00F9               	movwf	___lldiv@dividend+3
 10319  0676  082E               	movf	(sprintf@val+2)^(0+128),w
 10320  0677  00F8               	movwf	___lldiv@dividend+2
 10321  0678  082D               	movf	(sprintf@val+1)^(0+128),w
 10322  0679  00F7               	movwf	___lldiv@dividend+1
 10323  067A  082C               	movf	sprintf@val^(0+128),w
 10324  067B  00F6               	movwf	___lldiv@dividend
 10325  067C  160A  118A  2223  120A  118A  	fcall	___lldiv
 10326  0681  0875               	movf	?___lldiv+3,w
 10327  0682  1283               	bcf	3,5	;RP0=0, select bank0
 10328  0683  1303               	bcf	3,6	;RP1=0, select bank0
 10329  0684  00AC               	movwf	___llmod@dividend+3
 10330  0685  0874               	movf	?___lldiv+2,w
 10331  0686  00AB               	movwf	___llmod@dividend+2
 10332  0687  0873               	movf	?___lldiv+1,w
 10333  0688  00AA               	movwf	___llmod@dividend+1
 10334  0689  0872               	movf	?___lldiv,w
 10335  068A  00A9               	movwf	___llmod@dividend
 10336  068B  160A  118A  2174  120A  118A  	fcall	___llmod
 10337  0690  1283               	bcf	3,5	;RP0=0, select bank0
 10338  0691  1303               	bcf	3,6	;RP1=0, select bank0
 10339  0692  0825               	movf	?___llmod,w
 10340  0693  3E30               	addlw	48
 10341  0694  00E8               	movwf	??_sprintf+1
 10342  0695  0868               	movf	??_sprintf+1,w
 10343  0696  1683               	bsf	3,5	;RP0=1, select bank1
 10344  0697  1303               	bcf	3,6	;RP1=0, select bank1
 10345  0698  00B8               	movwf	sprintf@c^(0+128)
 10346  0699                     l3973:
 10347                           
 10348                           ;D:\Microchip\xc8\v2.31\pic\sources\c90\common\doprnt.c: 1549:    };D:\Microchip\xc8\v2.
      +                          31\pic\sources\c90\common\doprnt.c: 1550:    ((*sp++ = (c)));
 10349  0699  0838               	movf	sprintf@c^(0+128),w
 10350  069A  1283               	bcf	3,5	;RP0=0, select bank0
 10351  069B  1303               	bcf	3,6	;RP1=0, select bank0
 10352  069C  00E7               	movwf	??_sprintf
 10353  069D  1683               	bsf	3,5	;RP0=1, select bank1
 10354  069E  1303               	bcf	3,6	;RP1=0, select bank1
 10355  069F  0835               	movf	sprintf@sp^(0+128),w
 10356  06A0  0084               	movwf	4
 10357  06A1  1283               	bcf	3,5	;RP0=0, select bank0
 10358  06A2  1303               	bcf	3,6	;RP1=0, select bank0
 10359  06A3  0867               	movf	??_sprintf,w
 10360  06A4  1383               	bcf	3,7	;select IRP bank0
 10361  06A5  0080               	movwf	0
 10362  06A6  2E39               	goto	l3969
 10363  06A7                     l3977:
 10364                           
 10365                           ;D:\Microchip\xc8\v2.31\pic\sources\c90\common\doprnt.c: 1500:   while(prec--) {
 10366  06A7  30FF               	movlw	255
 10367  06A8  1683               	bsf	3,5	;RP0=1, select bank1
 10368  06A9  1303               	bcf	3,6	;RP1=0, select bank1
 10369  06AA  07B6               	addwf	sprintf@prec^(0+128),f
 10370  06AB  1803               	skipnc
 10371  06AC  0AB7               	incf	(sprintf@prec+1)^(0+128),f
 10372  06AD  30FF               	movlw	255
 10373  06AE  07B7               	addwf	(sprintf@prec+1)^(0+128),f
 10374  06AF  0A36               	incf	sprintf@prec^(0+128),w
 10375  06B0  1D03               	skipz
 10376  06B1  2EB6               	goto	u5801
 10377  06B2  0A37               	incf	(sprintf@prec+1)^(0+128),w
 10378  06B3  1D03               	btfss	3,2
 10379  06B4  2EB6               	goto	u5801
 10380  06B5  2EB7               	goto	u5800
 10381  06B6                     u5801:
 10382  06B6  2E40               	goto	l3971
 10383  06B7                     u5800:
 10384  06B7                     l3979:
 10385                           
 10386                           ;D:\Microchip\xc8\v2.31\pic\sources\c90\common\doprnt.c: 553:  while((c = *f++)) {
 10387  06B7  3001               	movlw	1
 10388  06B8  1283               	bcf	3,5	;RP0=0, select bank0
 10389  06B9  07DE               	addwf	sprintf@f,f
 10390  06BA  30FF               	movlw	-1
 10391  06BB  075E               	addwf	sprintf@f,w
 10392  06BC  0084               	movwf	4
 10393  06BD  160A  118A  200A  120A  118A  	fcall	stringdir
 10394  06C2  00E7               	movwf	??_sprintf
 10395  06C3  0867               	movf	??_sprintf,w
 10396  06C4  1683               	bsf	3,5	;RP0=1, select bank1
 10397  06C5  1303               	bcf	3,6	;RP1=0, select bank1
 10398  06C6  00B8               	movwf	sprintf@c^(0+128)
 10399  06C7  0838               	movf	sprintf@c^(0+128),w
 10400  06C8  1D03               	btfss	3,2
 10401  06C9  2ECB               	goto	u5811
 10402  06CA  2ECE               	goto	u5810
 10403  06CB                     u5811:
 10404  06CB  120A  158A  2D26   	goto	l3701
 10405  06CE                     u5810:
 10406  06CE                     l3981:
 10407                           
 10408                           ;D:\Microchip\xc8\v2.31\pic\sources\c90\common\doprnt.c: 1564:  *sp = 0;
 10409  06CE  1683               	bsf	3,5	;RP0=1, select bank1
 10410  06CF  1303               	bcf	3,6	;RP1=0, select bank1
 10411  06D0  0835               	movf	sprintf@sp^(0+128),w
 10412  06D1  0084               	movwf	4
 10413  06D2  1383               	bcf	3,7	;select IRP bank0
 10414  06D3  0180               	clrf	0
 10415  06D4                     l421:
 10416  06D4  0008               	return
 10417  06D5                     __end_of_sprintf:

Data Sizes:
    Strings     53
    Constant    118
    Data        0
    BSS         29
    Persistent  0
    Stack       0

Auto Spaces:
    Space          Size  Autos    Used
    COMMON           14     11      12
    BANK0            80     77      79
    BANK1            80     28      54
    BANK3            96      0       0
    BANK2            96      0       0

Pointer List with Targets:

    sprintf@f	PTR const unsigned char  size(1) Largest target is 18
		 -> STR_2(CODE[18]), 

    sprintf@sp	PTR unsigned char  size(1) Largest target is 20
		 -> pantalla(BANK1[20]), 

    sprintf@ap	PTR void [1] size(1) Largest target is 2
		 -> ?_sprintf(BANK0[2]), 

    USART_Write_String@a	PTR unsigned char  size(2) Largest target is 20
		 -> pantalla(BANK1[20]), STR_1(CODE[19]), 

    LCD_Write_String@a	PTR unsigned char  size(2) Largest target is 20
		 -> STR_3(CODE[16]), pantalla(BANK1[20]), 


Critical Paths under _main in COMMON

    _sprintf->___lldiv
    _sprintf->___lltoft
    _scale->___bmul
    ___awdiv->___awmod
    _fround->___bmul
    ___lwdiv->___lwmod
    ___bmul->___awdiv
    ___lltoft->___ftpack
    ___llmod->___lldiv
    ___ftsub->___lltoft
    _USART_Write_String->_USART_Write
    _LeerADC->___awtoft
    ___ftmul->___awtoft
    ___ftmul->___bmul
    ___awtoft->___ftpack
    _LCD_clear->_LCD_Command
    _LCD_Write_String->_LCD_Write_Char
    _LCD_Write_Char->_LCD_Port
    _LCD_Set_Cursor->_LCD_Command
    _LCD_Init->_LCD_Command
    _LCD_Command->_LCD_Port

Critical Paths under _ISR in COMMON

    None.

Critical Paths under _main in BANK0

    _main->_sprintf
    _sprintf->___ftsub
    _scale->___ftmul
    _fround->___ftmul
    ___bmul->___awdiv
    ___llmod->___lldiv
    ___fttol->_scale
    ___ftsub->___ftadd
    ___ftadd->_fround
    _LeerADC->___ftmul
    ___ftmul->___bmul

Critical Paths under _ISR in BANK0

    None.

Critical Paths under _main in BANK1

    _main->_sprintf

Critical Paths under _ISR in BANK1

    None.

Critical Paths under _main in BANK3

    None.

Critical Paths under _ISR in BANK3

    None.

Critical Paths under _main in BANK2

    None.

Critical Paths under _ISR in BANK2

    None.

Call Graph Tables:

 ---------------------------------------------------------------------------------
 (Depth) Function   	        Calls       Base Space   Used Autos Params    Refs
 ---------------------------------------------------------------------------------
 (0) _main                                                 3     3      0   48747
                                             25 BANK1      3     3      0
                       _Init_Receive
                      _Init_Transmit
                           _LCD_Init
                     _LCD_Set_Cursor
                   _LCD_Write_String
                          _LCD_clear
                            _LeerADC
                      _Set_Baud_Rate
                        _USART_Write
                 _USART_Write_String
                            _initADC
                              _setup
                            _sprintf
 ---------------------------------------------------------------------------------
 (1) _sprintf                                             45    36      9   40244
                                             62 BANK0     15     6      9
                                              0 BANK1     25    25      0
                            ___awdiv
                            ___ftadd
                             ___ftge
                            ___ftmul
                            ___ftneg
                            ___ftsub
                            ___fttol
                            ___lldiv
                            ___llmod
                           ___lltoft
                             ___wmul
                         __div_to_l_
                        __tdiv_to_l_
                             _fround
                            _isdigit
                              _scale
 ---------------------------------------------------------------------------------
 (2) _scale                                                9     6      3    8145
                                             27 BANK0      9     6      3
                            ___awdiv
                            ___awmod
                             ___bmul
                            ___ftmul
 ---------------------------------------------------------------------------------
 (3) ___awmod                                              7     3      4     932
                                              2 COMMON     7     3      4
 ---------------------------------------------------------------------------------
 (3) ___awdiv                                              9     5      4    1042
                                              9 COMMON     1     1      0
                                              0 BANK0      8     4      4
                            ___awmod (ARG)
 ---------------------------------------------------------------------------------
 (2) _isdigit                                              2     2      0      68
                                              2 COMMON     2     2      0
 ---------------------------------------------------------------------------------
 (2) _fround                                              16    13      3    7000
                                             27 BANK0     16    13      3
                             ___bmul
                            ___ftmul
                            ___lwdiv
                            ___lwmod
 ---------------------------------------------------------------------------------
 (3) ___lwmod                                              6     2      4     477
                                              2 COMMON     6     2      4
 ---------------------------------------------------------------------------------
 (3) ___lwdiv                                              8     4      4     631
                                              8 COMMON     1     1      0
                                              0 BANK0      7     3      4
                            ___lwmod (ARG)
 ---------------------------------------------------------------------------------
 (3) ___bmul                                               4     3      1     766
                                             10 COMMON     1     1      0
                                              8 BANK0      3     2      1
                            ___awdiv (ARG)
                            ___awmod (ARG)
                            ___lwdiv (ARG)
                            ___lwmod (ARG)
 ---------------------------------------------------------------------------------
 (2) __tdiv_to_l_                                         16    10      6     584
                                              2 COMMON     6     0      6
                                              0 BANK0     10    10      0
 ---------------------------------------------------------------------------------
 (2) __div_to_l_                                          20    14      6     552
                                              2 COMMON     6     0      6
                                              0 BANK0     14    14      0
 ---------------------------------------------------------------------------------
 (2) ___wmul                                               6     2      4    1382
                                              2 COMMON     6     2      4
 ---------------------------------------------------------------------------------
 (2) ___lltoft                                             6     2      4    2505
                                             10 COMMON     1     1      0
                                              0 BANK0      5     1      4
                           ___ftpack
 ---------------------------------------------------------------------------------
 (2) ___llmod                                             10     2      8     752
                                              5 BANK0     10     2      8
                            ___lldiv (ARG)
 ---------------------------------------------------------------------------------
 (2) ___lldiv                                             14     6      8     480
                                              2 COMMON     9     1      8
                                              0 BANK0      5     5      0
 ---------------------------------------------------------------------------------
 (2) ___fttol                                             14    10      4     411
                                             36 BANK0     14    10      4
                            ___ftmul (ARG)
                              _scale (ARG)
 ---------------------------------------------------------------------------------
 (2) ___ftsub                                              6     0      6    4049
                                             56 BANK0      6     0      6
                            ___ftadd
                           ___lltoft (ARG)
 ---------------------------------------------------------------------------------
 (3) ___ftadd                                             13     7      6    3823
                                             43 BANK0     13     7      6
                           ___ftpack
                             _fround (ARG)
 ---------------------------------------------------------------------------------
 (2) ___ftneg                                              3     0      3      98
                                              2 COMMON     3     0      3
 ---------------------------------------------------------------------------------
 (2) ___ftge                                               6     0      6     560
                                              2 COMMON     6     0      6
 ---------------------------------------------------------------------------------
 (1) _setup                                                0     0      0       0
 ---------------------------------------------------------------------------------
 (1) _initADC                                              0     0      0       0
 ---------------------------------------------------------------------------------
 (1) _USART_Write_String                                   4     2      2     218
                                              3 COMMON     4     2      2
                        _USART_Write
 ---------------------------------------------------------------------------------
 (2) _USART_Write                                          1     1      0      22
                                              2 COMMON     1     1      0
 ---------------------------------------------------------------------------------
 (1) _Set_Baud_Rate                                        0     0      0       0
 ---------------------------------------------------------------------------------
 (1) _LeerADC                                              9     6      3    7402
                                             27 BANK0      9     6      3
                         _ADC_Select
                           ___awtoft
                            ___ftmul
 ---------------------------------------------------------------------------------
 (3) ___ftmul                                             16    10      6    4776
                                             11 BANK0     16    10      6
                            ___awdiv (ARG)
                            ___awmod (ARG)
                           ___awtoft (ARG)
                             ___bmul (ARG)
                           ___ftpack
                            ___lwdiv (ARG)
                            ___lwmod (ARG)
 ---------------------------------------------------------------------------------
 (2) ___awtoft                                             6     3      3    2536
                                             10 COMMON     1     1      0
                                              0 BANK0      5     2      3
                           ___ftpack
 ---------------------------------------------------------------------------------
 (4) ___ftpack                                             8     3      5    2338
                                              2 COMMON     8     3      5
 ---------------------------------------------------------------------------------
 (2) _ADC_Select                                           3     3      0      22
                                              2 COMMON     3     3      0
 ---------------------------------------------------------------------------------
 (1) _LCD_clear                                            0     0      0      62
                        _LCD_Command
 ---------------------------------------------------------------------------------
 (1) _LCD_Write_String                                     7     5      2     322
                                              5 COMMON     5     3      2
                                              0 BANK0      2     2      0
                     _LCD_Write_Char
 ---------------------------------------------------------------------------------
 (2) _LCD_Write_Char                                       2     2      0      62
                                              3 COMMON     2     2      0
                           _LCD_Port
 ---------------------------------------------------------------------------------
 (1) _LCD_Set_Cursor                                       4     3      1     384
                                              6 COMMON     4     3      1
                        _LCD_Command
 ---------------------------------------------------------------------------------
 (1) _LCD_Init                                             2     2      0      93
                                              6 COMMON     2     2      0
                        _LCD_Command
                           _LCD_Port
 ---------------------------------------------------------------------------------
 (2) _LCD_Command                                          3     3      0      62
                                              3 COMMON     3     3      0
                           _LCD_Port
 ---------------------------------------------------------------------------------
 (3) _LCD_Port                                             1     1      0      31
                                              2 COMMON     1     1      0
 ---------------------------------------------------------------------------------
 (1) _Init_Transmit                                        0     0      0       0
 ---------------------------------------------------------------------------------
 (1) _Init_Receive                                         0     0      0       0
 ---------------------------------------------------------------------------------
 Estimated maximum stack depth 4
 ---------------------------------------------------------------------------------
 (Depth) Function   	        Calls       Base Space   Used Autos Params    Refs
 ---------------------------------------------------------------------------------
 (5) _ISR                                                  2     2      0       0
                                              0 COMMON     2     2      0
 ---------------------------------------------------------------------------------
 Estimated maximum stack depth 5
 ---------------------------------------------------------------------------------

 Call Graph Graphs:

 _main (ROOT)
   _Init_Receive
   _Init_Transmit
   _LCD_Init
     _LCD_Command
       _LCD_Port
     _LCD_Port
   _LCD_Set_Cursor
     _LCD_Command
       _LCD_Port
   _LCD_Write_String
     _LCD_Write_Char
       _LCD_Port
   _LCD_clear
     _LCD_Command
       _LCD_Port
   _LeerADC
     _ADC_Select
     ___awtoft
       ___ftpack
     ___ftmul
       ___awdiv (ARG)
         ___awmod (ARG)
       ___awmod (ARG)
       ___awtoft (ARG)
         ___ftpack
       ___bmul (ARG)
         ___awdiv (ARG)
           ___awmod (ARG)
         ___awmod (ARG)
         ___lwdiv (ARG)
           ___lwmod (ARG)
         ___lwmod (ARG)
       ___ftpack (ARG)
       ___lwdiv (ARG)
         ___lwmod (ARG)
       ___lwmod (ARG)
   _Set_Baud_Rate
   _USART_Write
   _USART_Write_String
     _USART_Write
   _initADC
   _setup
   _sprintf
     ___awdiv
       ___awmod (ARG)
     ___ftadd
       ___ftpack
       _fround (ARG)
         ___bmul
           ___awdiv (ARG)
             ___awmod (ARG)
           ___awmod (ARG)
           ___lwdiv (ARG)
             ___lwmod (ARG)
           ___lwmod (ARG)
         ___ftmul
           ___awdiv (ARG)
             ___awmod (ARG)
           ___awmod (ARG)
           ___awtoft (ARG)
             ___ftpack
           ___bmul (ARG)
             ___awdiv (ARG)
               ___awmod (ARG)
             ___awmod (ARG)
             ___lwdiv (ARG)
               ___lwmod (ARG)
             ___lwmod (ARG)
           ___ftpack (ARG)
           ___lwdiv (ARG)
             ___lwmod (ARG)
           ___lwmod (ARG)
         ___lwdiv
           ___lwmod (ARG)
         ___lwmod
     ___ftge
     ___ftmul
       ___awdiv (ARG)
         ___awmod (ARG)
       ___awmod (ARG)
       ___awtoft (ARG)
         ___ftpack
       ___bmul (ARG)
         ___awdiv (ARG)
           ___awmod (ARG)
         ___awmod (ARG)
         ___lwdiv (ARG)
           ___lwmod (ARG)
         ___lwmod (ARG)
       ___ftpack (ARG)
       ___lwdiv (ARG)
         ___lwmod (ARG)
       ___lwmod (ARG)
     ___ftneg
     ___ftsub
       ___ftadd
         ___ftpack
         _fround (ARG)
           ___bmul
             ___awdiv (ARG)
               ___awmod (ARG)
             ___awmod (ARG)
             ___lwdiv (ARG)
               ___lwmod (ARG)
             ___lwmod (ARG)
           ___ftmul
             ___awdiv (ARG)
               ___awmod (ARG)
             ___awmod (ARG)
             ___awtoft (ARG)
               ___ftpack
             ___bmul (ARG)
               ___awdiv (ARG)
                 ___awmod (ARG)
               ___awmod (ARG)
               ___lwdiv (ARG)
                 ___lwmod (ARG)
               ___lwmod (ARG)
             ___ftpack (ARG)
             ___lwdiv (ARG)
               ___lwmod (ARG)
             ___lwmod (ARG)
           ___lwdiv
             ___lwmod (ARG)
           ___lwmod
       ___lltoft (ARG)
         ___ftpack
     ___fttol
       ___ftmul (ARG)
         ___awdiv (ARG)
           ___awmod (ARG)
         ___awmod (ARG)
         ___awtoft (ARG)
           ___ftpack
         ___bmul (ARG)
           ___awdiv (ARG)
             ___awmod (ARG)
           ___awmod (ARG)
           ___lwdiv (ARG)
             ___lwmod (ARG)
           ___lwmod (ARG)
         ___ftpack (ARG)
         ___lwdiv (ARG)
           ___lwmod (ARG)
         ___lwmod (ARG)
       _scale (ARG)
         ___awdiv
           ___awmod (ARG)
         ___awmod
         ___bmul
           ___awdiv (ARG)
             ___awmod (ARG)
           ___awmod (ARG)
           ___lwdiv (ARG)
             ___lwmod (ARG)
           ___lwmod (ARG)
         ___ftmul
           ___awdiv (ARG)
             ___awmod (ARG)
           ___awmod (ARG)
           ___awtoft (ARG)
             ___ftpack
           ___bmul (ARG)
             ___awdiv (ARG)
               ___awmod (ARG)
             ___awmod (ARG)
             ___lwdiv (ARG)
               ___lwmod (ARG)
             ___lwmod (ARG)
           ___ftpack (ARG)
           ___lwdiv (ARG)
             ___lwmod (ARG)
           ___lwmod (ARG)
     ___lldiv
     ___llmod
       ___lldiv (ARG)
     ___lltoft
       ___ftpack
     ___wmul
     __div_to_l_
     __tdiv_to_l_
     _fround
       ___bmul
         ___awdiv (ARG)
           ___awmod (ARG)
         ___awmod (ARG)
         ___lwdiv (ARG)
           ___lwmod (ARG)
         ___lwmod (ARG)
       ___ftmul
         ___awdiv (ARG)
           ___awmod (ARG)
         ___awmod (ARG)
         ___awtoft (ARG)
           ___ftpack
         ___bmul (ARG)
           ___awdiv (ARG)
             ___awmod (ARG)
           ___awmod (ARG)
           ___lwdiv (ARG)
             ___lwmod (ARG)
           ___lwmod (ARG)
         ___ftpack (ARG)
         ___lwdiv (ARG)
           ___lwmod (ARG)
         ___lwmod (ARG)
       ___lwdiv
         ___lwmod (ARG)
       ___lwmod
     _isdigit
     _scale
       ___awdiv
         ___awmod (ARG)
       ___awmod
       ___bmul
         ___awdiv (ARG)
           ___awmod (ARG)
         ___awmod (ARG)
         ___lwdiv (ARG)
           ___lwmod (ARG)
         ___lwmod (ARG)
       ___ftmul
         ___awdiv (ARG)
           ___awmod (ARG)
         ___awmod (ARG)
         ___awtoft (ARG)
           ___ftpack
         ___bmul (ARG)
           ___awdiv (ARG)
             ___awmod (ARG)
           ___awmod (ARG)
           ___lwdiv (ARG)
             ___lwmod (ARG)
           ___lwmod (ARG)
         ___ftpack (ARG)
         ___lwdiv (ARG)
           ___lwmod (ARG)
         ___lwmod (ARG)

 _ISR (ROOT)

 Address spaces:
Name               Size   Autos  Total    Cost      Usage
BITCOMMON            E      0       0       0        0.0%
EEDATA             100      0       0       0        0.0%
NULL                 0      0       0       0        0.0%
CODE                 0      0       0       0        0.0%
COMMON               E      B       C       1       85.7%
BITSFR0              0      0       0       1        0.0%
SFR0                 0      0       0       1        0.0%
BITSFR1              0      0       0       2        0.0%
SFR1                 0      0       0       2        0.0%
STACK                0      0       0       2        0.0%
ABS                  0      0      91       3        0.0%
BITBANK0            50      0       0       4        0.0%
BITSFR3              0      0       0       4        0.0%
SFR3                 0      0       0       4        0.0%
BANK0               50     4D      4F       5       98.8%
BITSFR2              0      0       0       5        0.0%
SFR2                 0      0       0       5        0.0%
BITBANK1            50      0       0       6        0.0%
BANK1               50     1C      36       7       67.5%
BITBANK3            60      0       0       8        0.0%
BANK3               60      0       0       9        0.0%
BITBANK2            60      0       0      10        0.0%
BANK2               60      0       0      11        0.0%
DATA                 0      0      91      12        0.0%


Microchip Technology PIC Macro Assembler V2.31 build 20201012212115 
Symbol Table                                                                                   Fri Feb 12 19:26:51 2021

     __size_of_Init_Transmit 000E                            pc 0002               ___bmul@product 0029  
               ?_LCD_Command 0070                           l93 1E30                           l86 07D6  
                         l96 10F3                           _V1 00BF                           _V2 00BC  
                         l99 1124                 ___awdiv@sign 0025                           fsr 0004  
        ___wmul@multiplicand 0074                 ___ftadd@exp1 0057                 ___ftadd@exp2 0056  
               ___ftadd@sign 0055                          l112 10DC                          l121 1DA6  
                        l202 1D83                          l130 1E0C                          l115 1D74  
                        l124 1173                          l205 1D8F                          l118 1DE8  
                        l214 1ECE                          l151 1DB3                          l136 1FB9  
                        l208 1D99                          l322 0A5C                          l171 08B3  
                        l421 06D4                          l351 0E0A                          l425 1E62  
                        l329 0D17                          l427 1E7A                          l451 0817  
                        l196 1D6E                          l461 128A                          l621 1222  
                        l710 14B8                          l199 07FD                          l631 16C9  
                        l711 142A                          l391 030B                          l608 12F3  
                        l384 02B9                          l721 14AB                          l650 136F  
                        l642 16BC                          l634 1679                          l714 147B  
                        l627 1EA3                          l635 168C                          l804 1F01  
                        l661 134B                          l662 1355                          l654 1330  
                        l734 159D                          l663 136F                          l671 17FF  
                        l751 1E55                          l728 1F39                          l745 1D8D  
                        l674 1715                          l762 13DE                          l675 171F  
                        l755 13FB                          l676 1724                          l685 1795  
                        l867 1FFF                          l796 11C9                          l877 1F73  
                        l887 1DC5                          _RE0 0048                          _RE1 0049  
                        _ISR 1D75          __size_of_ADC_Select 009C                          fsr0 0004  
                        indf 0000                 ___awmod@sign 0078                         ?_ISR 0070  
             _LCD_Set_Cursor 1DE9                         l2211 11D6                         l2203 11CA  
                       l2221 11EF                         l2213 11DA                         l2205 11CB  
                       l2231 120E                         l2223 11F3                         l2215 11DF  
                       l2207 11CF                         l4001 1E06                         l2401 1F62  
                       l2161 128E                         l2225 11F7                         l2217 11E5  
                       l2233 1214                         l2209 11D4                         l4003 1F74  
                       l2411 1D95                         l2403 1F69                         l2171 12A2  
                       l2163 1292                         l2235 1219                         l2227 1201  
                       l2219 11E8                         l4011 06D5                         l4005 1F79  
                       l2421 082D                         l2413 0819                         l3301 131E  
                       l2405 1F6F                         l2181 12B8                         l2173 12A6  
                       l2165 1297                         l2237 121E                         l2229 1207  
                       l4021 0728                         l4013 06EE                         l4007 1F95  
                       l2431 0850                         l2423 0834                         l2415 081A  
                       l3311 134F                         l3303 1328                         l2191 12D8  
                       l2183 12BC                         l2175 12A8                         l2167 1299  
                       l2159 128B                         l4031 0787                         l4023 0731  
                       l4015 06F3                         l4009 1F9D                         l2441 0873  
                       l2433 0857                         l2425 083B                         l2417 081F  
                       l3313 1357                         l3305 1337                         l2409 1D8F  
                       l3401 17E4                         l3321 0804                         l2193 12DF  
                       l2185 12C0                         l2177 12AE                         l2169 129D  
                       l4105 0E26                         l4041 07B1                         l4033 078D  
                       l4025 0737                         l4017 06F8                         l4107 0887  
                       l2443 087A                         l2435 085E                         l2427 0842  
                       l2419 0826                         l3315 1369                         l3307 1341  
                       l3411 14D3                         l2603 159E                         l3331 0816  
                       l3323 0805                         l2187 12D1                         l2179 12B1  
                       l2195 12E5                         l4051 07DC                         l4043 07BA  
                       l4035 0793                         l4027 073D                         l4019 0710  
                       l3501 1DDC                         l2437 0865                         l2429 0849  
                       l3317 136E                         l3309 1345                         l3421 1519  
                       l3413 14E4                         l3405 14B9                         l3341 16F9  
                       l2621 1618                         l2605 15B8                         l3325 0809  
                       l2541 1DB6                         l2197 12EA                         l2189 12D7  
                       l4045 07C0                         l4053 07DE                         l4037 0798  
                       l4029 077E                         l3319 1D70                         l3503 1DDF  
                       l2439 086C                         l2447 087F                         l3431 152E  
                       l3423 151A                         l3407 14CC                         l2711 1F17  
                       l3351 1716                         l3335 16CA                         l2631 1678  
                       l2623 161D                         l2615 15DA                         l3327 080D  
                       l2391 1F43                         l2543 1DBC                         l2199 12EF  
                       l4047 07C8                         l4039 07A0                         l3441 1558  
                       l3433 153E                         l3425 1520                         l3417 14EB  
                       l2721 1F38                         l2713 1F24                         l2705 1F02  
                       l3361 172B                         l3353 171A                         l3345 1700  
                       l3337 16E9                         l2641 1698                         l2633 1686  
                       l2625 1621                         l2617 160E                         l2609 15C1  
                       l3329 080F                         l2393 1F4A                         l3505 08B7  
                       l2545 1DC2                         l4049 07CE                         l3291 1300  
                       l3451 1582                         l3443 155C                         l3435 1546  
                       l3427 1526                         l3419 1518                         l2715 1F26  
                       l2707 1F06                         l3371 175D                         l3363 1738  
                       l3355 171E                         l3347 1705                         l3339 16EF  
                       l2651 16C1                         l2635 1690                         l2643 16AA  
                       l2627 162A                         l2619 1616                         l2395 1F4E  
                       l2387 1F3A                         l3523 0A29                         l3507 08BD  
                       l3515 099A                         l2547 1DC4                         l2539 1DB5  
                       l3531 0A66                         l3621 1E7C                         l3445 156C  
                       l3437 154E                         l3429 152A                         l2821 1E1B  
                       l2813 1E0D                         l2717 1F28                         l2709 1F13  
                       l2725 1D84                         l3381 1783                         l3365 1742  
                       l3373 1764                         l3357 1723                         l3349 170B  
                       l2741 1370                         l2661 1E69                         l2629 1656  
                       l3613 14A0                         l3605 1487                         l3461 1FC7  
                       l2397 1F52                         l2389 1F40                         l3517 09A0  
                       l3509 0980                         l3541 0B32                         l3533 0A6D  
                       l3701 0D26                         l3295 1307                         l3287 12F4  
                       l3623 1E82                         l3447 1574                         l3439 1554  
                       l2831 1DA7                         l2823 1E22                         l2815 1E13  
                       l2719 1F36                         l2727 1D8B                         l3391 17BD  
                       l3383 178F                         l3375 176A                         l3367 1748  
                       l3359 1725                         l3631 1E31                         l2751 139F  
                       l2743 1383                         l2671 1235                         l2663 1E70  
                       l2655 1E56                         l3615 14B0                         l3607 1499  
                       l3471 1FED                         l3463 1FCE                         l3455 1FBA  
                       l2399 1F5C                         l3519 0A0F                         l3551 0BC6  
                       l3527 0A60                         l3711 0D56                         l3703 0D2C  
                       l3481 10C5                         l3297 1313                         l3289 12F9  
                       l3625 1E87                         l3449 157C                         l2833 1DAE  
                       l2825 1E25                         l2817 1E17                         l2729 1D8D  
                       l3393 17BE                         l3385 1799                         l3377 1774  
                       l3369 1751                         l3633 1E3A                         l2753 13A5  
                       l2681 1264                         l2673 1238                         l3641 117E  
                       l2665 1E76                         l2657 1E58                         l2649 16B1  
                       l3473 1FEE                         l3465 1FD2                         l3457 1FBE  
                       l3545 0B9E                         l3529 0A64                         l3801 0058  
                       l3713 0D5A                         l3721 0DA0                         l3705 0D39  
                       l3491 10D8                         l3483 10C8                         l3299 131A  
                       l3627 1E89                         l3619 1E7B                         l2851 1D6A  
                       l2835 1DB0                         l2827 1E28                         l2819 1E18  
                       l3395 17CE                         l3387 17A9                         l3379 177A  
                       l3635 1E3C                         l2755 13AC                         l2747 138C  
                       l2683 1272                         l2675 1245                         l3651 11B2  
                       l3643 1181                         l2659 1E5C                         l3475 1FF5  
                       l3467 1FD6                         l3459 1FC4                         l3563 0CF7  
                       l3539 0B2B                         l3811 0098                         l3803 006F  
                       l3731 0DD1                         l3723 0DAE                         l3715 0D6F  
                       l3707 0D40                         l2853 07F0                         l3493 1DC7  
                       l3485 10CE                         l2829 1E2B                         l3397 17D2  
                       l3389 17AD                         l2773 13D3                         l2765 13BA  
                       l2757 13AE                         l2749 139E                         l2685 1273  
                       l2677 1249                         l2669 1223                         l3653 11BB  
                       l3645 118E                         l3661 1ED6                         l3581 1431  
                       l3573 1418                         l3469 1FE7                         l3477 1FFB  
                       l3557 0C84                         l3549 0BBF                         l3813 00B3  
                       l3805 0078                         l3901 04AE                         l3733 0DEC  
                       l3725 0DB1                         l3717 0D8A                         l3709 0D44  
                       l2855 1D7C                         l3495 1DCA                         l3671 1129  
                       l3487 10D1                         l3399 17E2                         l2775 13E3  
                       l2759 13B2                         l2767 13CC                         l2687 127C  
                       l2679 1252                         l3647 1192                         l3655 11C1  
                       l3639 1174                         l3663 1EE3                         l3591 1462  
                       l3583 1440                         l3567 13FC                         l3559 0C8B  
                       l3911 04E4                         l3903 04C9                         l3831 018E  
                       l3807 0080                         l3815 00BA                         l3751 0E54  
                       l3743 0E0E                         l3735 0DF2                         l3727 0DB7  
                       l3719 0D90                         l3497 1DD0                         l3673 112F  
                       l3489 10D5                         l3681 1D9A                         l2873 1EA4  
                       l2777 13E8                         l2689 1282                         l3649 11A4  
                       l3665 1EE9                         l3593 146C                         l3585 1442  
                       l3569 140F                         l3913 04EA                         l3905 04D1  
                       l3841 01EB                         l3833 01BD                         l3825 0139  
                       l3817 0135                         l3761 0E95                         l3753 0E5F  
                       l3745 0E34                         l3729 0DBC                         l3737 0E04  
                       l3499 1DD3                         l3675 1138                         l3691 10F0  
                       l3683 10E0                         l2875 1EA6                         l2779 13F3  
                       l3659 1ECF                         l3595 146D                         l3587 144B  
                       l3579 142B                         l3931 055A                         l3923 04FA  
                       l3915 04F2                         l3907 04D5                         l3851 0220  
                       l3835 01C3                         l3819 0137                         l3771 0EE6  
                       l3763 0E99                         l3755 0E67                         l3747 0E4A  
                       l3739 0E08                         l3677 1146                         l3669 1125  
                       l3693 10F7                         l3685 10E0                         l2877 1EB7  
                       l3597 1475                         l3589 1454                         l3941 05A3  
                       l3933 0565                         l3917 04F8                         l3909 04D9  
                       l3861 02D0                         l3853 0227                         l3837 01D5  
                       l3845 01F2                         l3829 0180                         l3781 0F65  
                       l3773 0F09                         l3765 0EA0                         l3757 0E7C  
                       l3749 0E50                         l3679 114C                         l3695 111E  
                       l3687 10E6                         l2879 1EBB                         l3599 147F  
                       l3951 05D4                         l3943 05AB                         l3935 0578  
                       l3927 0541                         l3871 0301                         l3863 02D6  
                       l3855 0266                         l3847 0201                         l3839 01DE  
                       l3791 0FB1                         l3783 0F7A                         l3775 0F0D  
                       l3767 0ECD                         l3759 0E91                         l3689 10E9  
                       l3961 060A                         l3953 05DF                         l3945 05B1  
                       l3937 0589                         l3929 054F                         l3881 034C  
                       l3873 031C                         l3865 02DC                         l3857 02A5  
                       l3849 0215                         l3793 0FEA                         l3785 0F83  
                       l3777 0F13                         l3769 0ED3                         l3971 0640  
                       l3963 0610                         l3955 05F3                         l3947 05C7  
                       l3939 0591                         l3883 0399                         l3891 0486  
                       l3875 0321                         l3867 02E9                         l3859 02C3  
                       l3795 0021                         l3787 0F9A                         l3779 0F2C  
                       l3699 0D1B                         l3973 0699                         l3965 061C  
                       l3957 05F7                         l3949 05D0                         l3893 048E  
                       l3885 03D8                         l3877 032E                         l3869 02F8  
                       l3797 002A                         l3789 0FA2                         l3981 06CE  
                       l3991 1DEA                         l3967 062E                         l3959 05FD  
                       l3895 049B                         l3887 0417                         l3879 0334  
                       l3799 0049                         l3993 1DEF                         l3969 0639  
                       l3977 06A7                         l3897 04A1                         l3889 042B  
                       l3995 1DF4                         l3899 04A7                         l3979 06B7  
                       l3997 1DFB                         l3999 1E01                         STR_1 1086  
                       STR_2 1099                         STR_3 10AB                         u3000 1F52  
                       u3001 1F51                         u3010 1F5C                         u3011 1F5B  
                       u3030 1F6F                         u3031 1F6E                         u3015 1F58  
                       u3040 1D95                         u3120 1DBC                         u2400 12D1  
                       u3041 1D94                         u3025 1F63                         u3121 1DBB  
                       u2401 12D0                         u3130 1DC2                         u3131 1DC1  
                       u3300 1656                         u2420 12E5                         u2340 1292  
                       u3301 1655                         u2421 12E4                         u2405 12CD  
                       u2341 1291                         u3310 168C                         u2430 12EA  
                       u2350 129D                         u2510 1214                         u3311 168B  
                       u2431 12E9                         u2415 12D9                         u2351 129C  
                       u2511 1213                         u3320 1690                         u2360 12AE  
                       u2520 1219                         u2440 11CF                         u5000 0A6D  
                       u3321 168F                         u3305 1652                         u2361 12AD  
                       u2521 1218                         u2505 1208                         u2441 11CE  
                       u5001 0A6C                         u3330 1697                         u2450 11DA  
                       u5010 0B32                         u3331 1696                         u2451 11D9  
                       u5011 0B31                         u3420 1E76                         u5100 147F  
                       u2380 12C0                         u2460 11E5                         u5020 0BC6  
                       u3421 1E75                         u3405 1E63                         u5101 147E  
                       u2381 12BF                         u2461 11E4                         u5021 0BC5  
                       u3510 1F06                         u3430 1235                         u3350 16A9  
                       u3270 15B8                         u5110 1486                         u5030 0C8B  
                       u3511 1F05                         u3431 1234                         u3415 1E6A  
                       u3351 16A8                         u3271 15B7                         u5111 1485  
                       u2375 12B2                         u5031 0C8A                         u3520 1F17  
                       u3360 16B0                         u3280 15D9                         u5040 140F  
                       u2480 11F7                         u3521 1F16                         u3361 16AF  
                       u3345 1699                         u3281 15D8                         u5041 140E  
                       u2481 11F6                         u4410 1319                         u3530 1F36  
                       u3610 13CB                         u3450 1249                         u5210 1192  
                       u5130 1498                         u5050 1429                         u2490 1201  
                       u4411 1318                         u3531 1F35                         u3611 13CA  
                       u3451 1248                         u5211 1191                         u5131 1497  
                       u5051 1428                         u2395 12C1                         u2491 1200  
                       u2475 11E9                         u3540 1D8B                         u3620 13D2  
                       u5220 11A4                         u3380 16C1                         u5140 149F  
                       u4500 0809                         u5300 0DA0                         u4405 130C  
                       u3541 1D8A                         u3621 13D1                         u3605 13BB  
                       u3445 123A                         u5221 11A3                         u5205 1183  
                       u3381 16C0                         u5141 149E                         u5125 1488  
                       u4501 0808                         u5301 0D9F                         u4430 1336  
                       u3470 1264                         u3390 1E5C                         u5070 1462  
                       u4510 0816                         u5310 0DAE                         u4431 1335  
                       u3535 1F32                         u3471 1263                         u3391 1E5B  
                       u3375 16B3                         u3295 1623                         u5071 1461  
                       u4511 0815                         u2495 11FD                         u5311 0DAD  
                       u4600 1738                         u4520 16E9                         u3640 13E3  
                       u3560 1383                         u5240 11C1                         u5160 14B0  
                       u5400 0F9A                         u5320 0E03                         u4425 1329  
                       u4601 1737                         u4521 16E8                         u3641 13E2  
                       u3561 1382                         u3465 124B                         u5241 11C0  
                       u5225 11A0                         u5161 14AF                         u5065 144D  
                       u5401 0F99                         u5321 0E02                         u4450 1345  
                       u5170 1E82                         u4530 16EF                         u3650 13E8  
                       u3570 1397                         u3490 1282                         u5090 147B  
                       u5410 0FB1                         u5330 0E4A                         u4451 1344  
                       u5171 1E81                         u4531 16EE                         u3651 13E7  
                       u3635 13D5                         u3491 1281                         u3475 1260  
                       u5235 11B3                         u5155 14A2                         u5091 147A  
                       u5075 145E                         u5411 0FB0                         u5331 0E47  
                       u4460 134B                         u4380 12F9                         u4620 1748  
                       u4540 16F9                         u5180 1E3A                         u3580 13B2  
                       u5260 1EE9                         u5500 01BD                         u5420 0021  
                       u5340 0E50                         u4461 134A                         u4445 133A  
                       u4381 12F8                         u4621 1747                         u4541 16F8  
                       u5181 1E39                         u3581 13B1                         u3485 1274  
                       u5261 1EE8                         u5085 146E                         u5501 01BC  
                       u5421 0FFA                         u5341 0E4F                         u4470 134F  
                       u4390 1300                         u5270 10F7                         u3750 1ECE  
                       u4710 1795                         u4630 1750                         u4550 1705  
                       u3590 13B9                         u5190 117E                         u5510 01D5  
                       u5430 002A                         u5350 0E7C                         u4471 134E  
                       u4391 12FF                         u5271 10F6                         u3751 1ECD  
                       u4711 1794                         u4631 174F                         u4615 1739  
                       u4551 1704                         u3591 13B8                         u3575 1393  
                       u5191 117D                         u5255 1ED7                         u5511 01D4  
                       u5431 0029                         u5415 0FAD                         u5351 0E7B  
                       u4480 1360                         u4800 152E                         u4720 1799  
                       u4560 170B                         u5520 0201                         u5440 0049  
                       u5360 0EA0                         u5280 0D2C                         u4801 152D  
                       u4721 1798                         u4705 1784                         u4561 170A  
                       u5521 0200                         u5441 0048                         u5425 0FF5  
                       u5361 0E9F                         u5281 0D2B                         u4490 136E  
                       u4730 17AD                         u4650 1763                         u4570 1715  
                       u5610 048D                         u5530 0215                         u5450 0058  
                       u5370 0EB6                         u5290 0D56                         u4491 136D  
                       u4811 1537                         u4731 17AC                         u4651 1762  
                       u4571 1714                         u5611 048C                         u5531 0214  
                       u5451 0057                         u5291 0D55                         u4812 153E  
                       u4660 176A                         u4580 171E                         u4900 1FC4  
                       u2980 1F40                         u5700 0578                         u5620 04AD  
                       u5460 006F                         u5380 0F0D                         _RCIF 0065  
                       u4485 135C                         u4741 17C7                         u4661 1769  
                       u4645 1752                         u4581 171D                         u4901 1FC3  
                       u2981 1F3F                         u5701 0577                         u5621 04AC  
                       u5605 0430                         u5525 01FD                         u5461 006E  
                       u5381 0F0C                         u4750 17D2                         u4742 17CE  
                       u4590 1723                         u5710 0591                         u5630 04D5  
                       u5550 02C2                         u5390 0F7A                         u4751 17D1  
                       u4591 1722                         u5711 0590                         u5631 04D4  
                       u5551 02C1                         u5455 0054                         u5391 0F79  
                       u5375 0EB1                         u4840 1554                         u4760 14CC  
                       u4680 177A                         u4920 1FD6                         u5800 06B7  
                       u5720 05A3                         u5640 04EA                         u5560 02E9  
                       u5480 017F                         u4841 1553                         u4825 153F  
                       u4761 14CB                         u4681 1779                         u4921 1FD5  
                       u5801 06B6                         u5721 05A2                         u5705 0574  
                       u5641 04E9                         u5561 02E8                         u5545 022C  
                       u5481 017E                         u4850 155C                         u4770 14E4  
                       u4690 1782                         u5810 06CE                         u5730 05B1  
                       u5650 04F2                         u5570 02F8                         u5490 018E  
                       u4851 155B                         u4835 1547                         u4771 14E3  
                       u4691 1781                         u4675 176B                         u4915 1FC8  
                       u2995 1F44                         u5811 06CB                         u5731 05B0  
                       u5651 04F1                         u5571 02F7                         u5491 018D  
                       u5475 013E                         u5820 1DEF                         u4780 14FB  
                       u4940 1FE7                         u5740 05C7                         u5580 0321  
                       u5821 1DEE                         u4861 1565                         u4941 1FE6  
                       u5741 05C6                         u5581 0320                         u5565 02E5  
                       u5485 017B                         u5830 1E01                         u4862 156C  
                       u4790 150D                         u5750 05DF                         u5670 0540  
                       i1l79 1D75                         u5831 1E00                         u4935 1FD7  
                       u5751 05DE                         u5671 053F                         u5575 02F4  
                       u5840 1F83                         u4960 1FFB                         u5760 05FD  
                       u5680 054F                         u4785 14F7                         u4961 1FFA  
                       u4945 1FE3                         u5761 05FC                         u5745 05C3  
                       u5681 054E                         u5665 04FF                         u5850 1FA7  
                       u4890 1582                         u4970 08BD                         u5770 061C  
                       u5690 055A                         u4891 1581                         u4875 156D  
                       u4795 1509                         u4955 1FEF                         u4971 08BC  
                       u5771 061B                         u5755 05DB                         u5691 0559  
                       u5675 053C                         u5595 039E                         u5907 07E6  
                       u5860 1FB9                         u4980 09A0                         u5780 062E  
                       u5861 1FB8                         u4885 1575                         u5917 10ED  
                       u4981 099F                         u5781 062D                         u4990 0A64  
                       u5870 07C0                         u5927 10D3                         u4991 0A63  
                       u5695 0556                         u5871 07BF                         u5880 07CE  
                       u5937 10DA                         u5881 07CD                         u5890 07DC  
                       u5947 1133                         u5795 0651                         u5891 07DB  
                       u5957 1142                         u5967 1150                         u5977 1DD7  
                       u5987 1DE3                         _TRMT 04C1            ?_LCD_Write_String 0075  
__size_of_USART_Write_String 002B                         _main 06D5                 ___ftpack@arg 0072  
               ___ftpack@exp 0075                         btemp 007E                         start 000C  
         ??_LCD_Write_String 0077           __size_of_LCD_clear 000D                 _sprintf$1132 00A0  
            __end_of_LeerADC 1125            ___bmul@multiplier 002A                 ___ftmul@cntr 0039  
               ___ftmul@sign 003A                ?_Init_Receive 0070                        ??_ISR 0070  
               ___fttol@exp1 0051                 ___fttol@lval 004D             __end_of_LCD_Init 1174  
           __end_of_LCD_Port 1D75                        ?_main 0070              __end_of___awdiv 12F4  
            __end_of___ftadd 1800              __end_of___awmod 1223              __end_of___ftneg 1D8E  
                      _ANSEL 0188              __end_of___lldiv 128B              __end_of___ftmul 159E  
            ___awdiv@divisor 0020              __end_of___llmod 11CA              __end_of___ftsub 1E56  
            __end_of___fttol 13FC              __end_of___lwdiv 2000              __end_of___lwmod 1F74  
            ___awdiv@counter 0024                        _RCREG 001A                        _SPBRG 0099  
                      _PORTA 0005                        _PORTB 0006                        _PORTC 0007  
                      _PORTD 0008                        _PORTE 0009                        _TRISA 0085  
                      _TRISB 0086                        _TRISC 0087                        _TRISD 0088  
                      _TRISE 0089                        _TXREG 0019                 ___lltoft@exp 0024  
     __end_of_LCD_Set_Cursor 1E0D                _Init_Transmit 07F0              __end_of_initADC 1DB4  
              ___awtoft@sign 007A              __end_of_dpowers 1086                        _scale 0A5D  
            __end_of_isdigit 1DC6                ___ftpack@sign 0076                        _setup 1E0D  
               LCD_Command@a 0075                        pclath 000A                        status 0003  
                      wtemp0 007E              __end_of_sprintf 06D5                 USART_Write@a 0072  
             _LCD_Write_Char 10C4              __initialization 000F               ??_Init_Receive 0072  
               __end_of_main 07F0                       ??_main 00B9                ___fttol@sign1 004C  
       __size_of__tdiv_to_l_ 00BD            __end_of_LCD_clear 1DA7               ?_Init_Transmit 0070  
            ?_LCD_Set_Cursor 0076                       _ADCON0 001F                       _ADCON1 009F  
           ___llmod@dividend 0029                       ?_scale 003B                       _ADRESH 001E  
           ___awdiv@dividend 0022                       ?_setup 0070             __end_of___awtoft 1EA4  
           __end_of___ftpack 1370                       _ANSELH 0189             __end_of___lltoft 1F02  
               ??_ADC_Select 0072                    ??_LeerADC 003E       __end_of_LCD_Write_Char 10DD  
           __end_of__powers_ 1037                       ___bmul 0801                       ___ftge 1F02  
                     ___wmul 1E56                    ??___awdiv 0079                    ??___ftadd 0051  
                  ??___awmod 0076                    ??___ftneg 0075                    ??___lldiv 007A  
                  ??___ftmul 0031                    ??___llmod 002D                    ??___ftsub 007B  
                  ??___fttol 0048                    ??___lwdiv 0078                    ??___lwmod 0076  
                     _fround 08B4             ___awdiv@quotient 0026              ___awmod@divisor 0072  
            ___awmod@counter 0077         __size_of_LCD_Command 0023                    ??_initADC 0072  
      ___ftmul@f3_as_product 0036                    ??_isdigit 0072           __end_of_ADC_Select 08B4  
                     saved_w 007E                    ??_sprintf 0067              LCD_Set_Cursor@a 0079  
            LCD_Set_Cursor@x 0078              LCD_Set_Cursor@y 0076      __end_of__initialization 001D  
                  ?_LCD_Init 0070                    ?_LCD_Port 0070                   ___ftadd@f1 004B  
                 ___ftadd@f2 004E                   ___ftge@ff1 0072                   ___ftge@ff2 0075  
            ?_LCD_Write_Char 0070                   ___ftneg@f1 0072                   ___awtoft@c 0020  
               ?_USART_Write 0070          ___bmul@multiplicand 0028                   ___ftmul@f1 002B  
                 ___ftmul@f2 002E                   ___ftsub@f1 005B                   ___ftsub@f2 0058  
                 ___fttol@f1 0044               __pcstackCOMMON 0070                    LCD_Port@a 0072  
                 ___lltoft@c 0020                __end_of_scale 0D18                __end_of_setup 1E31  
     __size_of_Set_Baud_Rate 0005              ??_Init_Transmit 0072                   __div_to_l_ 159E  
       __end_of_Init_Receive 1D84              __div_to_l_@exp1 002D              __div_to_l_@cntr 002C  
                    ??_scale 003E              __div_to_l_@quot 0028                 sprintf@width 00A6  
                    ??_setup 0072                   __pbssBANK0 006D                   __pbssBANK1 00BC  
                 ??_LCD_Init 0076                   ??_LCD_Port 0072                __div_to_l_@f1 0072  
              __div_to_l_@f2 0075                   __pmaintext 06D5                      ?___bmul 0028  
                    ?___ftge 0072                      ?___wmul 0072                   __pintentry 0004  
                    ?_fround 003B    __size_of_LCD_Write_String 0046                    ?___awtoft 0020  
                  ?___ftpack 0072                    ?___lltoft 0020   __end_of_USART_Write_String 1ECF  
                 __stringtab 1000                _Set_Baud_Rate 1D6A                      _LeerADC 10DD  
          __end_of__npowers_ 105E                   _scale$1131 0040              __size_of___bmul 0017  
            __size_of___ftge 0038                      ___awdiv 128B                      ___ftadd 16CA  
                    ___awmod 11CA                      ___ftneg 1D84                      ___lldiv 1223  
            __size_of___wmul 0025                      ___ftmul 14B9                      ___llmod 1174  
                    ___ftsub 1E31                      ___fttol 1370                      ___lwdiv 1FBA  
                    ___lwmod 1F3A                   ??___awtoft 0023                   ??___ftpack 0077  
            __size_of_fround 01A9                   ??___lltoft 007A             ??_LCD_Set_Cursor 0077  
                    __ptext1 0D18                      __ptext2 0A5D                      __ptext3 11CA  
                    __ptext4 128B                      __ptext5 1DB4                      __ptext6 08B4  
                    __ptext7 1F3A                      __ptext8 1FBA                      __ptext9 0801  
                    _initADC 1DA7                 __size_of_ISR 0007                  ?__div_to_l_ 0072  
                    _dpowers 105E                      _isdigit 1DB4             ___awmod@dividend 0074  
                    _sprintf 0D18                      clrloop0 10BD                    _LCD_clear 1D9A  
       end_of_initialization 001D               ?_Set_Baud_Rate 0070              ___lldiv@divisor 0072  
            ___lldiv@counter 0024                    _RCSTAbits 0018                      psplit$0 C0036  
       __size_of_USART_Write 000C               __tdiv_to_l_@f1 0072               __tdiv_to_l_@f2 0075  
              ??__tdiv_to_l_ 0020        __size_of_Init_Receive 0008                    _TRISCbits 0087  
                 ?_LCD_clear 0070            LCD_Write_String@a 0075            LCD_Write_String@i 0020  
           ??_LCD_Write_Char 0073                    _TXSTAbits 0098            __size_of_LCD_Init 004F  
        __size_of__div_to_l_ 012C            __size_of_LCD_Port 0006                  ___ftmul@exp 0035  
               _Init_Receive 1D7C                ??_LCD_Command 0073               __end_of___bmul 0818  
             __end_of___ftge 1F3A               __end_of___wmul 1E7B             _LCD_Write_String 1F74  
          pnum$text1_split_1 0036               __end_of_fround 0A5D          start_initialization 000F  
                __end_of_ISR 1D7C          __end_of__tdiv_to_l_ 14B9              ??_Set_Baud_Rate 0072  
            ___llmod@divisor 0025              ___llmod@counter 002E                     ??___bmul 007A  
                   ??___ftge 0078                     ??___wmul 0076              LCD_Write_Char@a 0074  
                   ??_fround 003E                sprintf@tmpval 00A8                   fround@prec 004A  
          __size_of___awtoft 0029            __size_of___ftpack 007C          __end_of_LCD_Command 1DE9  
          __size_of___lltoft 0033                  __pbssCOMMON 007B        __end_of_Init_Transmit 07FE  
                  ___latbits 0002                __pcstackBANK0 0020                __pcstackBANK1 00A0  
                ??_LCD_clear 0076                  sprintf@flag 00A4                  sprintf@eexp 00B0  
                   ?_LeerADC 003B                  sprintf@fval 00B2                  sprintf@prec 00B6  
           ___lwdiv@dividend 0022           _USART_Write_String 1EA4                     ?___awdiv 0020  
                   ?___ftadd 004B                     ?___awmod 0072                     ?___ftneg 0072  
                   ?___lldiv 0072                     ?___ftmul 002B                     ?___llmod 0025  
                   ?___ftsub 0058                    __npowers_ 1037                     ?___fttol 0044  
                   ?___lwdiv 0020                     ?___lwmod 0072                    __pstrings 1000  
        ?_USART_Write_String 0073                  __tdiv_to_l_ 13FC                     ?_initADC 0070  
               ??__div_to_l_ 0020                     ?_isdigit 0070             ___lwdiv@quotient 0025  
                   ?_sprintf 005E               __size_of_scale 02BB               __size_of_setup 0024  
                ADC_Select@a 0074         ??_USART_Write_String 0075            interrupt_function 0004  
                   _LCD_Init 1125               ___wmul@product 0076                     _LCD_Port 1D6F  
                  clear_ram0 10BC                     _PIE1bits 008C                     _PIR1bits 000C  
         __end_of__div_to_l_ 16CA                    _valor_adc 007B                     LeerADC@a 0041  
                   LeerADC@x 0040                  _LCD_Command 1DC6                   _ADCON0bits 001F  
                __stringbase 100F            ___wmul@multiplier 0072     __end_of_LCD_Write_String 1FBA  
                 _ADC_Select 0818             __size_of_LeerADC 0048                ??_USART_Write 0072  
           __size_of___awdiv 0069             __size_of___ftadd 0136             __size_of___awmod 0059  
           __size_of___ftneg 000A             __size_of___lldiv 0068             __size_of___ftmul 00E5  
           __size_of___llmod 0056             __size_of___ftsub 0025             __size_of___fttol 008C  
           __size_of___lwdiv 0046             __size_of___lwmod 003A                     ___awtoft 1E7B  
                   ___ftpack 12F4                  _fround$1130 0044                  _fround$1129 0047  
         __end_of__stringtab 1010                     ___lltoft 1ECF                  _isdigit$938 0072  
                 sprintf@val 00AC             __size_of_initADC 000D             __size_of_isdigit 0012  
            ___lwdiv@divisor 0020              ___lwdiv@counter 0024                     __ptext10 13FC  
                   __ptext11 159E                     __ptext20 1F02                     __ptext12 1E56  
                   __ptext21 1E0D                     __ptext13 1ECF                     __ptext30 0818  
                   __ptext22 1DA7                     __ptext14 1174                     __ptext31 1D9A  
                   __ptext23 1EA4                     __ptext15 1223                     __ptext40 1D75  
                   __ptext32 1F74                     __ptext24 1D8E                     __ptext16 1370  
                   __ptext33 10C4                     __ptext25 1D6A                     __ptext17 1E31  
                   __ptext34 1DE9                     __ptext26 10DD                     __ptext18 16CA  
                   __ptext35 1125                     __ptext27 14B9                     __ptext19 1D84  
                   __ptext36 1DC6                     __ptext28 1E7B                     __ptext37 1D6F  
                   __ptext29 12F4                     __ptext38 07F0                     __ptext39 1D7C  
                   __powers_ 1010      __size_of_LCD_Set_Cursor 0024                     _contador 006E  
           __size_of_sprintf F9BD                __size_of_main 011B                    pnum$text1 000C  
                   _recibido 006D                     _pantalla 00C2          __end_of_USART_Write 1D9A  
                 _INTCONbits 000B                     isdigit@c 0073                     scale@scl 0043  
      __end_of_Set_Baud_Rate 1D6F                     intlevel1 0000                    sprintf@ap 00A3  
           __tdiv_to_l_@exp1 0029             __tdiv_to_l_@cntr 0028                    sprintf@sp 00B5  
           __tdiv_to_l_@quot 0024             ___lwmod@dividend 0074                  ?_ADC_Select 0070  
           ___lldiv@dividend 0076                    stringcode 100A      __size_of_LCD_Write_Char 0019  
               ?__tdiv_to_l_ 0072                     sprintf@c 00B8                     sprintf@f 005E  
        USART_Write_String@a 0073          USART_Write_String@i 0076             ___lldiv@quotient 0020  
            ___lwmod@divisor 0072              ___lwmod@counter 0077                     stringdir 100A  
                   stringtab 1000                  _USART_Write 1D8E  
